((dp0
I0
Vt3_3mmgzr
p1
sI1
Vt3_3mzc6u
p2
sI2
Vt3_3lxxq7
p3
sI3
Vt3_3ql0w8
p4
sI4
Vt3_3osxux
p5
sI5
Vt3_3mr2ir
p6
sI6
Vt3_3rj3dr
p7
sI7
Vt3_3pzfwo
p8
sI8
Vt3_3qyr5w
p9
sI9
Vt3_3qhtmg
p10
sI10
Vt3_3mrizv
p11
sI11
Vt3_3ordvx
p12
sI12
Vt3_3qntv4
p13
sI13
Vt3_3oq17f
p14
sI14
Vt3_3scdg8
p15
sI15
Vt3_3pejmt
p16
sI16
Vt3_3qdfmy
p17
sI17
Vt3_3s70oc
p18
sI18
Vt3_3o1t8i
p19
sI19
Vt3_3s54y1
p20
sI20
Vt3_3ppg21
p21
sI21
Vt3_3rn702
p22
sI22
Vt3_3rs29y
p23
sI23
Vt3_3oh55e
p24
sI24
Vt3_3rc5pt
p25
sI25
Vt3_3phfaw
p26
sI26
Vt3_3q53e4
p27
sI27
Vt3_3rdw96
p28
sI28
Vt3_3maj6b
p29
sI29
Vt3_3ohueb
p30
sI30
Vt3_3r6s54
p31
sI31
Vt3_3ospra
p32
sI32
Vt3_3ov1nv
p33
sI33
Vt3_3rmcry
p34
sI34
Vt3_3o4hme
p35
sI35
Vt3_3n8bjt
p36
sI36
Vt3_3o2ugk
p37
sI37
Vt3_3nlxzo
p38
sI38
Vt3_3s82s5
p39
sI39
Vt3_3nhsu0
p40
sI40
Vt3_3qs02c
p41
sI41
Vt3_3ocxaj
p42
sI42
Vt3_3m8z61
p43
sI43
Vt3_3p72xb
p44
sI44
Vt3_3q7k3q
p45
sI45
Vt3_3o616z
p46
sI46
Vt3_3rfoxr
p47
sI47
Vt3_3muwy8
p48
sI48
Vt3_3p6cld
p49
sI49
Vt3_3ozoot
p50
sI50
Vt3_3q3sie
p51
sI51
Vt3_3n1sci
p52
sI52
Vt3_3normn
p53
sI53
Vt3_3mx2w6
p54
sI54
Vt3_3ry8vf
p55
sI55
Vt3_3qr8e3
p56
sI56
Vt3_3q279m
p57
sI57
Vt3_3nxt82
p58
sI58
Vt3_3s4ck0
p59
sI59
Vt3_3p13df
p60
sI60
Vt3_3nvwx8
p61
sI61
Vt3_3rl8w6
p62
sI62
Vt3_3qrsij
p63
sI63
Vt3_3m79kq
p64
sI64
Vt3_3sexfu
p65
sI65
Vt3_3p8rmk
p66
sI66
Vt3_3n19vw
p67
sI67
Vt3_3rw9cg
p68
sI68
Vt3_3mx9ku
p69
sI69
Vt3_3p2bm4
p70
sI70
Vt3_3s5ky4
p71
sI71
Vt3_3qup2f
p72
sI72
Vt3_3qi0g9
p73
sI73
Vt3_3mpvjg
p74
sI74
Vt3_3s540b
p75
sI75
Vt3_3q5lw4
p76
sI76
Vt3_3nuugi
p77
sI77
Vt3_3sbh83
p78
sI78
Vt3_3oxitc
p79
sI79
Vt3_3sjot5
p80
sI80
Vt3_3mv9af
p81
sI81
Vt3_3ni5eg
p82
sI82
Vt3_3mhgci
p83
sI83
Vt3_3riizs
p84
sI84
Vt3_3nqqrd
p85
sI85
Vt3_3o6nzh
p86
sI86
Vt3_3qq7mu
p87
sI87
Vt3_3ozojx
p88
sI88
Vt3_3pw559
p89
sI89
Vt3_3qaq8p
p90
sI90
Vt3_3pd06k
p91
sI91
Vt3_3siz6b
p92
sI92
Vt3_3nlxh5
p93
sI93
Vt3_3n4wy9
p94
sI94
Vt3_3ovdd5
p95
sI95
Vt3_3p5p6g
p96
sI96
Vt3_3opjgt
p97
sI97
Vt3_3q0k86
p98
sI98
Vt3_3pk0ve
p99
sI99
Vt3_3nvw5l
p100
sI100
Vt3_3rqdl1
p101
sI101
Vt3_3qu840
p102
sI102
Vt3_3ryqa9
p103
sI103
Vt3_3safrr
p104
sI104
Vt3_3n4ctq
p105
sI105
Vt3_3mb0rp
p106
sI106
Vt3_3m7ozl
p107
sI107
Vt3_3nubdt
p108
sI108
Vt3_3ohg8u
p109
sI109
Vt3_3nlc03
p110
sI110
Vt3_3s8ob6
p111
sI111
Vt3_3pbgvz
p112
sI112
Vt3_3qluho
p113
sI113
Vt3_3qhhdp
p114
sI114
Vt3_3pc53v
p115
sI115
Vt3_3r5w5s
p116
sI116
Vt3_3ninvq
p117
sI117
Vt3_3rnsfm
p118
sI118
Vt3_3p9s0w
p119
sI119
Vt3_3s6t6s
p120
sI120
Vt3_3qygox
p121
sI121
Vt3_3plgbs
p122
sI122
Vt3_3o89f2
p123
sI123
Vt3_3mjaq5
p124
sI124
Vt3_3sh3g8
p125
sI125
Vt3_3sfvoq
p126
sI126
Vt3_3oho31
p127
sI127
Vt3_3rch5i
p128
sI128
Vt3_3nvawr
p129
sI129
Vt3_3qkvzh
p130
sI130
Vt3_3p3mnx
p131
sI131
Vt3_3p04jv
p132
sI132
Vt3_3s3s5k
p133
sI133
Vt3_3ox8w2
p134
sI134
Vt3_3nysgi
p135
sI135
Vt3_3rdnyj
p136
sI136
Vt3_3nec0y
p137
sI137
Vt3_3ohfux
p138
sI138
Vt3_3pv37e
p139
sI139
Vt3_3na725
p140
sI140
Vt3_3oi2mh
p141
sI141
Vt3_3n0hen
p142
sI142
Vt3_3n42fg
p143
sI143
Vt3_3m6xvn
p144
sI144
Vt3_3q8lad
p145
sI145
Vt3_3n574y
p146
sI146
Vt3_3mnci3
p147
sI147
Vt3_3m54q5
p148
sI148
Vt3_3pe7nq
p149
sI149
Vt3_3rkksg
p150
sI150
Vt3_3ni2rm
p151
sI151
Vt3_3rkm96
p152
sI152
Vt3_3ri5n8
p153
sI153
Vt3_3r9m5z
p154
sI154
Vt3_3npgpc
p155
sI155
Vt3_3p0ds1
p156
sI156
Vt3_3nf8ql
p157
sI157
Vt3_3sbvju
p158
sI158
Vt3_3rn5p4
p159
sI159
Vt3_3raiog
p160
sI160
Vt3_3rtl4t
p161
sI161
Vt3_3qvob0
p162
sI162
Vt3_3qd8ll
p163
sI163
Vt3_3ohzpu
p164
sI164
Vt3_3sbrro
p165
sI165
Vt3_3nt0d9
p166
sI166
Vt3_3oe9qm
p167
sI167
Vt3_3riscd
p168
sI168
Vt3_3pftlb
p169
sI169
Vt3_3ri6ol
p170
sI170
Vt3_3ox6r7
p171
sI171
Vt3_3qn3kr
p172
sI172
Vt3_3sj647
p173
sI173
Vt3_3qqufw
p174
sI174
Vt3_3rw6ft
p175
sI175
Vt3_3pj95y
p176
sI176
Vt3_3rm4y6
p177
sI177
Vt3_3p3wwi
p178
sI178
Vt3_3sc6g0
p179
sI179
Vt3_3mmj2v
p180
sI180
Vt3_3nwxfp
p181
sI181
Vt3_3psmsp
p182
sI182
Vt3_3qgbxp
p183
sI183
Vt3_3rfgmu
p184
sI184
Vt3_3rehl3
p185
sI185
Vt3_3s6p3f
p186
sI186
Vt3_3obri6
p187
sI187
Vt3_3nslg5
p188
sI188
Vt3_3po62y
p189
sI189
Vt3_3msku9
p190
sI190
Vt3_3nqa1z
p191
sI191
Vt3_3r4ejr
p192
sI192
Vt3_3m1a6p
p193
sI193
Vt3_3rqxi6
p194
sI194
Vt3_3nwjkx
p195
sI195
Vt3_3n8jvc
p196
sI196
Vt3_3n7h2a
p197
sI197
Vt3_3nhy1a
p198
sI198
Vt3_3rd4r3
p199
sI199
Vt3_3qqwzg
p200
sI200
Vt3_3m58tk
p201
sI201
Vt3_3mchaq
p202
sI202
Vt3_3r8xsd
p203
sI203
Vt3_3nuezh
p204
sI204
Vt3_3ogvex
p205
sI205
Vt3_3mxh56
p206
sI206
Vt3_3n63uc
p207
sI207
Vt3_3p9luh
p208
sI208
Vt3_3nmflz
p209
sI209
Vt3_3oopm5
p210
sI210
Vt3_3mkscc
p211
sI211
Vt3_3pf5rk
p212
sI212
Vt3_3neu73
p213
sI213
Vt3_3om6lj
p214
sI214
Vt3_3nvro1
p215
sI215
Vt3_3p5fn7
p216
sI216
Vt3_3ntjwd
p217
sI217
Vt3_3oa5vp
p218
sI218
Vt3_3mt2p4
p219
sI219
Vt3_3puw1w
p220
sI220
Vt3_3o2usi
p221
sI221
Vt3_3r0wkv
p222
sI222
Vt3_3ra28h
p223
sI223
Vt3_3omzv1
p224
sI224
Vt3_3s5xfl
p225
sI225
Vt3_3pe2p7
p226
sI226
Vt3_3pqomk
p227
sI227
Vt3_3qgon1
p228
sI228
Vt3_3o5nu0
p229
sI229
Vt3_3medsy
p230
sI230
Vt3_3qu0g7
p231
sI231
Vt3_3ra91y
p232
sI232
Vt3_3sh5us
p233
sI233
Vt3_3oj5sc
p234
sI234
Vt3_3owy3b
p235
sI235
Vt3_3o15uj
p236
sI236
Vt3_3ne2u4
p237
sI237
Vt3_3qc46o
p238
sI238
Vt3_3s3js3
p239
sI239
Vt3_3n0chi
p240
sI240
Vt3_3oio6a
p241
sI241
Vt3_3mhbgl
p242
sI242
Vt3_3px9j0
p243
sI243
Vt3_3qu9ts
p244
sI244
Vt3_3pozl2
p245
sI245
Vt3_3q2zo7
p246
sI246
Vt3_3rskrt
p247
sI247
Vt3_3sc48x
p248
sI248
Vt3_3m1wqo
p249
sI249
Vt3_3nmqan
p250
sI250
Vt3_3m7a0e
p251
sI251
Vt3_3rv1u5
p252
sI252
Vt3_3qpj9g
p253
sI253
Vt3_3qnx32
p254
sI254
Vt3_3q9vsk
p255
sI255
Vt3_3ngf1m
p256
sI256
Vt3_3pfgvy
p257
sI257
Vt3_3o54mu
p258
sI258
Vt3_3p5dx4
p259
sI259
Vt3_3pje0g
p260
sI260
Vt3_3pdyv6
p261
sI261
Vt3_3pobu0
p262
sI262
Vt3_3me6lr
p263
sI263
Vt3_3s5gwk
p264
sI264
Vt3_3q8vdc
p265
sI265
Vt3_3qk9ss
p266
sI266
Vt3_3q27mk
p267
sI267
Vt3_3nzj0y
p268
sI268
Vt3_3pe7mr
p269
sI269
Vt3_3mynof
p270
sI270
Vt3_3qk9x5
p271
sI271
Vt3_3rumyq
p272
sI272
Vt3_3rxq3n
p273
sI273
Vt3_3njdqt
p274
sI274
Vt3_3p1xpx
p275
sI275
Vt3_3m5iql
p276
sI276
Vt3_3q4xnk
p277
sI277
Vt3_3q764r
p278
sI278
Vt3_3nl2sq
p279
sI279
Vt3_3s2z0o
p280
sI280
Vt3_3qugom
p281
sI281
Vt3_3rhgor
p282
sI282
Vt3_3qb3vf
p283
sI283
Vt3_3pe78y
p284
sI284
Vt3_3nd36n
p285
sI285
Vt3_3o4807
p286
sI286
Vt3_3mjezn
p287
sI287
Vt3_3mile6
p288
sI288
Vt3_3mc6y0
p289
sI289
Vt3_3rpjig
p290
sI290
Vt3_3ms89s
p291
sI291
Vt3_3mczxh
p292
sI292
Vt3_3q7t2r
p293
sI293
Vt3_3lodwj
p294
sI294
Vt3_3riovl
p295
sI295
Vt3_3p4u7a
p296
sI296
Vt3_3pankf
p297
sI297
Vt3_3pcwux
p298
sI298
Vt3_3mqreb
p299
sI299
Vt3_3m3aj6
p300
sI300
Vt3_3odxnj
p301
sI301
Vt3_3m27ff
p302
sI302
Vt3_3rgd2b
p303
sI303
Vt3_3nb2sn
p304
sI304
Vt3_3qkuos
p305
sI305
Vt3_3ps89t
p306
sI306
Vt3_3oupxe
p307
sI307
Vt3_3m3c0z
p308
sI308
Vt3_3rlel3
p309
sI309
Vt3_3mbq2j
p310
sI310
Vt3_3sgued
p311
sI311
Vt3_3ot9dg
p312
sI312
Vt3_3ovwnj
p313
sI313
Vt3_3rd0wz
p314
sI314
Vt3_3qd2tm
p315
sI315
Vt3_3ragbj
p316
sI316
Vt3_3pwprl
p317
sI317
Vt3_3pzgmh
p318
sI318
Vt3_3oopr4
p319
sI319
Vt3_3shyb5
p320
sI320
Vt3_3nxup3
p321
sI321
Vt3_3rh99n
p322
sI322
Vt3_3obgor
p323
sI323
Vt3_3roewy
p324
sI324
Vt3_3mdfva
p325
sI325
Vt3_3r2d3n
p326
sI326
Vt3_3qvcej
p327
sI327
Vt3_3pvgcb
p328
sI328
Vt3_3r3i90
p329
sI329
Vt3_3n4tl7
p330
sI330
Vt3_3sbdk1
p331
sI331
Vt3_3rknzd
p332
sI332
Vt3_3qtwph
p333
sI333
Vt3_3n1vj9
p334
sI334
Vt3_3quj7y
p335
sI335
Vt3_3p6c8j
p336
sI336
Vt3_3mm22v
p337
sI337
Vt3_3q5vdm
p338
sI338
Vt3_3s5ciz
p339
sI339
Vt3_3seb2d
p340
sI340
Vt3_3pwk13
p341
sI341
Vt3_3pinwx
p342
sI342
Vt3_3mhcw2
p343
sI343
Vt3_3mjaet
p344
sI344
Vt3_3pychg
p345
sI345
Vt3_3rldx2
p346
sI346
Vt3_3q1d6r
p347
sI347
Vt3_3orxxl
p348
sI348
Vt3_3p3ml4
p349
sI349
Vt3_3lxmpn
p350
sI350
Vt3_3pex0m
p351
sI351
Vt3_3n9kzl
p352
sI352
Vt3_3or2v9
p353
sI353
Vt3_3rzuci
p354
sI354
Vt3_3m6gq5
p355
sI355
Vt3_3oltrm
p356
sI356
Vt3_3mz6pm
p357
sI357
Vt3_3ql1wn
p358
sI358
Vt3_3qh5fw
p359
sI359
Vt3_3rmsnz
p360
sI360
Vt3_3pkpz7
p361
sI361
Vt3_3pbsfq
p362
sI362
Vt3_3p1ip9
p363
sI363
Vt3_3qfe9u
p364
sI364
Vt3_3msxwe
p365
sI365
Vt3_3mnw0r
p366
sI366
Vt3_3qvldr
p367
sI367
Vt3_3ndyub
p368
sI368
Vt3_3nts3i
p369
sI369
Vt3_3o1vh4
p370
sI370
Vt3_3o0yyw
p371
sI371
Vt3_3p6oyj
p372
sI372
Vt3_3pq2hi
p373
sI373
Vt3_3myz7j
p374
sI374
Vt3_3qp4ie
p375
sI375
Vt3_3ray63
p376
sI376
Vt3_3n3bql
p377
sI377
Vt3_3n22n6
p378
sI378
Vt3_3pb83g
p379
sI379
Vt3_3p8vco
p380
sI380
Vt3_3olwo4
p381
sI381
Vt3_3m2auo
p382
sI382
Vt3_3mv826
p383
sI383
Vt3_3nrlu3
p384
sI384
Vt3_3osr51
p385
sI385
Vt3_3saobx
p386
sI386
Vt3_3oqurc
p387
sI387
Vt3_3n130x
p388
sI388
Vt3_3opzwb
p389
sI389
Vt3_3pu8tg
p390
sI390
Vt3_3q8467
p391
sI391
Vt3_3mzsmg
p392
sI392
Vt3_3p9dzc
p393
sI393
Vt3_3mar1h
p394
sI394
Vt3_3o7s9v
p395
sI395
Vt3_3qrlmj
p396
sI396
Vt3_3nu1km
p397
sI397
Vt3_3s8ac9
p398
sI398
Vt3_3p8707
p399
sI399
Vt3_3ribmq
p400
sI400
Vt3_3ncof7
p401
sI401
Vt3_3s7hmb
p402
sI402
Vt3_3pb5ks
p403
sI403
Vt3_3pbdgi
p404
sI404
Vt3_3rdvfa
p405
sI405
Vt3_3ndm8u
p406
sI406
Vt3_3nsaar
p407
sI407
Vt3_3rb6rb
p408
sI408
Vt3_3q6upx
p409
sI409
Vt3_3m4tq2
p410
sI410
Vt3_3odov7
p411
sI411
Vt3_3mcw72
p412
sI412
Vt3_3o54z3
p413
sI413
Vt3_3o2lef
p414
sI414
Vt3_3mxz7u
p415
sI415
Vt3_3piifx
p416
sI416
Vt3_3nrlrx
p417
sI417
Vt3_3oq3vi
p418
sI418
Vt3_3s1otp
p419
sI419
Vt3_3ohddv
p420
sI420
Vt3_3sazmz
p421
sI421
Vt3_3qzxym
p422
sI422
Vt3_3n1ddd
p423
sI423
Vt3_3n4vqm
p424
sI424
Vt3_3sbzdr
p425
sI425
Vt3_3mvo0k
p426
sI426
Vt3_3qw775
p427
sI427
Vt3_3mr6t0
p428
sI428
Vt3_3m2sw7
p429
sI429
Vt3_3pnp0y
p430
sI430
Vt3_3nclqd
p431
sI431
Vt3_3pg4v2
p432
sI432
Vt3_3ryd0q
p433
sI433
Vt3_3sayeh
p434
sI434
Vt3_3o0mkx
p435
sI435
Vt3_3oqejx
p436
sI436
Vt3_3mx5p0
p437
sI437
Vt3_3ow4nl
p438
sI438
Vt3_3nuy9j
p439
sI439
Vt3_3m7hyk
p440
sI440
Vt3_3ofn95
p441
sI441
Vt3_3plhq5
p442
sI442
Vt3_3o29f6
p443
sI443
Vt3_3phnek
p444
sI444
Vt3_3nydcr
p445
sI445
Vt3_3pwxrg
p446
sI446
Vt3_3nwc2k
p447
sI447
Vt3_3nn3d0
p448
sI448
Vt3_3ncxfp
p449
sI449
Vt3_3qmbso
p450
sI450
Vt3_3n09l8
p451
sI451
Vt3_3rk25j
p452
sI452
Vt3_3m2v3j
p453
sI453
Vt3_3miuaq
p454
sI454
Vt3_3rdgdu
p455
sI455
Vt3_3n1o6v
p456
sI456
Vt3_3migev
p457
sI457
Vt3_3p3ohn
p458
sI458
Vt3_3s4eb6
p459
sI459
Vt3_3qnpmp
p460
sI460
Vt3_3q3kes
p461
sI461
Vt3_3q7h23
p462
sI462
Vt3_3map33
p463
sI463
Vt3_3r0p1a
p464
sI464
Vt3_3qwmq1
p465
sI465
Vt3_3pnx6n
p466
sI466
Vt3_3nraau
p467
sI467
Vt3_3ol1i1
p468
sI468
Vt3_3oq6yi
p469
sI469
Vt3_3savs5
p470
sI470
Vt3_3myrjr
p471
sI471
Vt3_3r3z00
p472
sI472
Vt3_3oz6yk
p473
sI473
Vt3_3q40nz
p474
sI474
Vt3_3p78fo
p475
sI475
Vt3_3mn2r2
p476
sI476
Vt3_3s9n5g
p477
sI477
Vt3_3rs3eg
p478
sI478
Vt3_3orldi
p479
sI479
Vt3_3pes58
p480
sI480
Vt3_3mbmyw
p481
sI481
Vt3_3s9n5v
p482
sI482
Vt3_3mxv7j
p483
sI483
Vt3_3pj3br
p484
sI484
Vt3_3n0tqw
p485
sI485
Vt3_3qq33x
p486
sI486
Vt3_3pi9g1
p487
sI487
Vt3_3puvdu
p488
sI488
Vt3_3rd0qs
p489
sI489
Vt3_3osuon
p490
sI490
Vt3_3o48q6
p491
sI491
Vt3_3onkae
p492
sI492
Vt3_3ntac6
p493
sI493
Vt3_3rj6vo
p494
sI494
Vt3_3olzcy
p495
sI495
Vt3_3qdno6
p496
sI496
Vt3_3nw6rj
p497
sI497
Vt3_3orfkc
p498
sI498
Vt3_3s2dfy
p499
sI499
Vt3_3q3b83
p500
sI500
Vt3_3rdh5m
p501
sI501
Vt3_3pmn8i
p502
sI502
Vt3_3mej8r
p503
sI503
Vt3_3ohubh
p504
sI504
Vt3_3q0sna
p505
sI505
Vt3_3lyk7o
p506
sI506
Vt3_3rupsa
p507
sI507
Vt3_3pirmx
p508
sI508
Vt3_3nxm7e
p509
sI509
Vt3_3o9a93
p510
sI510
Vt3_3p58c6
p511
sI511
Vt3_3qw0ft
p512
sI512
Vt3_3n4kym
p513
s(dp514
I513
Vt1_cvqu2nt
p515
sI514
Vt1_cwmfqe6
p516
sI515
Vt1_cvgi4yy
p517
sI516
Vt1_cwx84ad
p518
sI517
Vt1_cvf2uil
p519
sI518
Vt1_cwn0jxi
p520
sI519
Vt1_cw5r0sa
p521
sI520
Vt1_cvoe7s9
p522
sI521
Vt1_cvnf4ik
p523
sI522
Vt1_cwno0xy
p524
sI523
Vt1_cwj0gea
p525
sI524
Vt1_cvl5z7i
p526
sI525
Vt1_cwbrzd1
p527
sI526
Vt1_cwsvg50
p528
sI527
Vt1_cw0ygwo
p529
sI528
Vt1_cvpekc1
p530
sI529
Vt1_cvxvc54
p531
sI530
Vt1_cw4yn1m
p532
sI531
Vt1_cvslwvm
p533
sI532
Vt1_cwuspte
p534
sI533
Vt1_cw51xoi
p535
sI534
Vt1_cw88fr7
p536
sI535
Vt1_cvmy4kl
p537
sI536
Vt1_cwcqpmz
p538
sI537
Vt1_cvzqxsp
p539
sI538
Vt1_cvzudz0
p540
sI539
Vt1_cvxeckg
p541
sI540
Vt1_cwf4zo3
p542
sI541
Vt1_cwibvam
p543
sI542
Vt1_cw326qv
p544
sI543
Vt1_cwctrj0
p545
sI544
Vt1_cvgjlrl
p546
sI545
Vt1_cwp021r
p547
sI546
Vt1_cws82xu
p548
sI547
Vt1_cwn6kzp
p549
sI548
Vt1_cvifh1y
p550
sI549
Vt1_cvike1r
p551
sI550
Vt1_cvw5qdk
p552
sI551
Vt1_cvkzqnl
p553
sI552
Vt1_cwx762m
p554
sI553
Vt1_cweoqjc
p555
sI554
Vt1_cwogggv
p556
sI555
Vt1_cvvapxq
p557
sI556
Vt1_cwmqvvv
p558
sI557
Vt1_cvn9dfa
p559
sI558
Vt1_cwcu7o7
p560
sI559
Vt1_cwd3r4z
p561
sI560
Vt1_cwcrxdf
p562
sI561
Vt1_cvzrg5s
p563
sI562
Vt1_cvrut24
p564
sI563
Vt1_cw0u584
p565
sI564
Vt1_cw1wlvz
p566
sI565
Vt1_cvr1cih
p567
sI566
Vt1_cwb9v9a
p568
sI567
Vt1_cw5jkiy
p569
sI568
Vt1_cwwiwqf
p570
sI569
Vt1_cw07g7s
p571
sI570
Vt1_cwlm10j
p572
sI571
Vt1_cvuxv80
p573
sI572
Vt1_cwhd63h
p574
sI573
Vt1_cvd2e9m
p575
sI574
Vt1_cwxa5bc
p576
sI575
Vt1_cwtvaou
p577
sI576
Vt1_cwe9qsl
p578
sI577
Vt1_cveeq8o
p579
sI578
Vt1_cvbo9gk
p580
sI579
Vt1_cw6lufy
p581
sI580
Vt1_cwgsltu
p582
sI581
Vt1_cvzvntn
p583
sI582
Vt1_cvsze3f
p584
sI583
Vt1_cvcp4yt
p585
sI584
Vt1_cwifc1g
p586
sI585
Vt1_cvyn1jy
p587
sI586
Vt1_cw6oti9
p588
sI587
Vt1_cw3z97u
p589
sI588
Vt1_cw4en06
p590
sI589
Vt1_cvhkli9
p591
sI590
Vt1_cwbnqn5
p592
sI591
Vt1_cvy52pf
p593
sI592
Vt1_cvq4pre
p594
sI593
Vt1_cwtmt0q
p595
sI594
Vt1_cvh7z2e
p596
sI595
Vt1_cvqo4zs
p597
sI596
Vt1_cwidubs
p598
sI597
Vt1_cwp42s4
p599
sI598
Vt1_cvk6it4
p600
sI599
Vt1_cvjwl8i
p601
sI600
Vt1_cwcxwfm
p602
sI601
Vt1_cvx92oc
p603
sI602
Vt1_cwbvdfw
p604
sI603
Vt1_cvhryhn
p605
sI604
Vt1_cvhkga9
p606
sI605
Vt1_cvk2oel
p607
sI606
Vt1_cvdiulc
p608
sI607
Vt1_cw84c66
p609
sI608
Vt1_cwsepif
p610
sI609
Vt1_cwasm64
p611
sI610
Vt1_cvx5miq
p612
sI611
Vt1_cvbhnlj
p613
sI612
Vt1_cwvn12i
p614
sI613
Vt1_cw5ikgc
p615
sI614
Vt1_cvphyz8
p616
sI615
Vt1_cvxev4o
p617
sI616
Vt1_cvwgp4g
p618
sI617
Vt1_cvvsb8u
p619
sI618
Vt1_cwqyncn
p620
sI619
Vt1_cwnk4vm
p621
sI620
Vt1_cw6nlz5
p622
sI621
Vt1_cwunw7q
p623
sI622
Vt1_cvuk1yi
p624
sI623
Vt1_cvx4zc8
p625
sI624
Vt1_cviya8o
p626
sI625
Vt1_cveaqvf
p627
sI626
Vt1_cvmtxcb
p628
sI627
Vt1_cwnf988
p629
sI628
Vt1_cvg8xmz
p630
sI629
Vt1_cwea0kq
p631
sI630
Vt1_cwile45
p632
sI631
Vt1_cvk2ktg
p633
sI632
Vt1_cw9c7t3
p634
sI633
Vt1_cvthi3f
p635
sI634
Vt1_cww4ycu
p636
sI635
Vt1_cvk4ffi
p637
sI636
Vt1_cw2u80u
p638
sI637
Vt1_cvw4ths
p639
sI638
Vt1_cwdf6lt
p640
sI639
Vt1_cvh0km5
p641
sI640
Vt1_cwgjk1j
p642
sI641
Vt1_cwbq2r5
p643
sI642
Vt1_cwrhytq
p644
sI643
Vt1_cwmt7pk
p645
sI644
Vt1_cwwn5ic
p646
sI645
Vt1_cvmtvoe
p647
sI646
Vt1_cwrkvbn
p648
sI647
Vt1_cwnty11
p649
sI648
Vt1_cvcnpah
p650
sI649
Vt1_cvzflr2
p651
sI650
Vt1_cwbvsn7
p652
sI651
Vt1_cwvus88
p653
sI652
Vt1_cwifkxc
p654
sI653
Vt1_cwpesp0
p655
sI654
Vt1_cwvytsy
p656
sI655
Vt1_cvu7liz
p657
sI656
Vt1_cw6nwlr
p658
sI657
Vt1_cwmjnme
p659
sI658
Vt1_cw5jeug
p660
sI659
Vt1_cvr5pd8
p661
sI660
Vt1_cvct01i
p662
sI661
Vt1_cw5aj1d
p663
sI662
Vt1_cvpje52
p664
sI663
Vt1_cwvtjoj
p665
sI664
Vt1_cw2xk8d
p666
sI665
Vt1_cvqu0ae
p667
sI666
Vt1_cwhrvl5
p668
sI667
Vt1_cvznvnq
p669
sI668
Vt1_cwp9n37
p670
sI669
Vt1_cw6cr5v
p671
sI670
Vt1_cvgic2t
p672
sI671
Vt1_cvq6q6c
p673
sI672
Vt1_cwkc01x
p674
sI673
Vt1_cve0cn5
p675
sI674
Vt1_cwizkc2
p676
sI675
Vt1_cvsfhxu
p677
sI676
Vt1_cwpbvh9
p678
sI677
Vt1_cw1of07
p679
sI678
Vt1_cwifsey
p680
sI679
Vt1_cvfbgqm
p681
sI680
Vt1_cwx2zvq
p682
sI681
Vt1_cwc7qsf
p683
sI682
Vt1_cwb5x62
p684
sI683
Vt1_cwm6ypa
p685
sI684
Vt1_cwfczle
p686
sI685
Vt1_cvtcsj6
p687
sI686
Vt1_cwxa0cv
p688
sI687
Vt1_cwmarh5
p689
sI688
Vt1_cw1dzzy
p690
sI689
Vt1_cwfcsos
p691
sI690
Vt1_cvntegx
p692
sI691
Vt1_cvlmsxa
p693
sI692
Vt1_cvu06qx
p694
sI693
Vt1_cwvhbe5
p695
sI694
Vt1_cw4tpg7
p696
sI695
Vt1_cvc57g9
p697
sI696
Vt1_cvmco3e
p698
sI697
Vt1_cw6t49h
p699
sI698
Vt1_cwx7pup
p700
sI699
Vt1_cvsimnm
p701
sI700
Vt1_cvuxh25
p702
sI701
Vt1_cw3x14v
p703
sI702
Vt1_cvrtxjh
p704
sI703
Vt1_cvy5lpw
p705
sI704
Vt1_cw89dll
p706
sI705
Vt1_cvumwfv
p707
sI706
Vt1_cwq76vd
p708
sI707
Vt1_cwsioco
p709
sI708
Vt1_cwcu3j4
p710
sI709
Vt1_cw574hb
p711
sI710
Vt1_cw6oqjf
p712
sI711
Vt1_cvk3fve
p713
sI712
Vt1_cvrfjij
p714
sI713
Vt1_cwnevhm
p715
sI714
Vt1_cvzmzun
p716
sI715
Vt1_cvt1sux
p717
sI716
Vt1_cwpdjwi
p718
sI717
Vt1_cw1gx1x
p719
sI718
Vt1_cwvsnot
p720
sI719
Vt1_cwiikfz
p721
sI720
Vt1_cwbnhw0
p722
sI721
Vt1_cwf44ud
p723
sI722
Vt1_cw8d91v
p724
sI723
Vt1_cwohj60
p725
sI724
Vt1_cvlpvpa
p726
sI725
Vt1_cwvuqeb
p727
sI726
Vt1_cwecvjl
p728
sI727
Vt1_cwg5z0s
p729
sI728
Vt1_cwguhbz
p730
sI729
Vt1_cwee93s
p731
sI730
Vt1_cwdlnc5
p732
sI731
Vt1_cvmz7ke
p733
sI732
Vt1_cwh7nia
p734
sI733
Vt1_cwccvlj
p735
sI734
Vt1_cw1vclj
p736
sI735
Vt1_cvruugf
p737
sI736
Vt1_cwvqh54
p738
sI737
Vt1_cwi294a
p739
sI738
Vt1_cvqkbm8
p740
sI739
Vt1_cvberfq
p741
sI740
Vt1_cvkqn58
p742
sI741
Vt1_cwx512c
p743
sI742
Vt1_cw4x93h
p744
sI743
Vt1_cw2zk9z
p745
sI744
Vt1_cvfnt9g
p746
sI745
Vt1_cvr2hif
p747
sI746
Vt1_cwf0l49
p748
sI747
Vt1_cwx452k
p749
sI748
Vt1_cw0anz2
p750
sI749
Vt1_cvrwe1x
p751
sI750
Vt1_cvrb9j7
p752
sI751
Vt1_cvc66uv
p753
sI752
Vt1_cwv1i82
p754
sI753
Vt1_cvyh7m7
p755
sI754
Vt1_cwjeba9
p756
sI755
Vt1_cwvwlwf
p757
sI756
Vt1_cweo3o8
p758
sI757
Vt1_cwaujlw
p759
sI758
Vt1_cvt39c3
p760
sI759
Vt1_cwru1pv
p761
sI760
Vt1_cw45grr
p762
sI761
Vt1_cwmgoay
p763
sI762
Vt1_cwnchqp
p764
sI763
Vt1_cwg5qsj
p765
sI764
Vt1_cw60ftp
p766
sI765
Vt1_cwc6rir
p767
sI766
Vt1_cvv793z
p768
sI767
Vt1_cw300ad
p769
sI768
Vt1_cw5iidk
p770
sI769
Vt1_cwide4a
p771
sI770
Vt1_cwpchk9
p772
sI771
Vt1_cwo3zy1
p773
sI772
Vt1_cwxph6v
p774
sI773
Vt1_cw6o00v
p775
sI774
Vt1_cwusj9i
p776
sI775
Vt1_cw3ci5s
p777
sI776
Vt1_cw4vi7w
p778
sI777
Vt1_cwa36wp
p779
sI778
Vt1_cvezmpk
p780
sI779
Vt1_cwd3t8v
p781
sI780
Vt1_cw631nh
p782
sI781
Vt1_cwmbj3j
p783
sI782
Vt1_cw1r2wv
p784
sI783
Vt1_cwjjxi4
p785
sI784
Vt1_cwurlz3
p786
sI785
Vt1_cvyvfkq
p787
sI786
Vt1_cw1ka05
p788
sI787
Vt1_cvznnms
p789
sI788
Vt1_cvcloij
p790
sI789
Vt1_cwiktv4
p791
sI790
Vt1_cvvfghd
p792
sI791
Vt1_cvnu3qu
p793
sI792
Vt1_cw05jvb
p794
sI793
Vt1_cvjz6w6
p795
sI794
Vt1_cwv7uja
p796
sI795
Vt1_cw1j6ty
p797
sI796
Vt1_cw63onf
p798
sI797
Vt1_cvnk4hs
p799
sI798
Vt1_cvx8rkt
p800
sI799
Vt1_cw7bp1y
p801
sI800
Vt1_cwqx661
p802
sI801
Vt1_cwcgvus
p803
sI802
Vt1_cw5pwsg
p804
sI803
Vt1_cwuglzk
p805
sI804
Vt1_cw0so4d
p806
sI805
Vt1_cvdg727
p807
sI806
Vt1_cwoba7k
p808
sI807
Vt1_cwod83s
p809
sI808
Vt1_cwosz05
p810
sI809
Vt1_cwki76i
p811
sI810
Vt1_cvhvxmp
p812
sI811
Vt1_cwajrss
p813
sI812
Vt1_cwxqejp
p814
sI813
Vt1_cvte5x6
p815
sI814
Vt1_cw5hq8k
p816
sI815
Vt1_cw17meq
p817
sI816
Vt1_cw5xwkx
p818
sI817
Vt1_cvzoaar
p819
sI818
Vt1_cvr0zsh
p820
sI819
Vt1_cvjtbc5
p821
sI820
Vt1_cwpi5n7
p822
sI821
Vt1_cvxk35j
p823
sI822
Vt1_cwfyo92
p824
sI823
Vt1_cvxbf1r
p825
sI824
Vt1_cwvvs0h
p826
sI825
Vt1_cwii76r
p827
sI826
Vt1_cvtlheo
p828
sI827
Vt1_cwmzdyf
p829
sI828
Vt1_cwhlf46
p830
sI829
Vt1_cwpp24e
p831
sI830
Vt1_cvckpk0
p832
sI831
Vt1_cvjs7nd
p833
sI832
Vt1_cvbc727
p834
sI833
Vt1_cw22l5p
p835
sI834
Vt1_cw5pws5
p836
sI835
Vt1_cvoarpy
p837
sI836
Vt1_cwur15w
p838
sI837
Vt1_cwf5geg
p839
sI838
Vt1_cwvwis6
p840
sI839
Vt1_cvirhcl
p841
sI840
Vt1_cvs25dx
p842
sI841
Vt1_cwbuqg9
p843
sI842
Vt1_cvnb15k
p844
sI843
Vt1_cw5hdss
p845
sI844
Vt1_cvtc9a0
p846
sI845
Vt1_cvk2uar
p847
sI846
Vt1_cwve8hb
p848
sI847
Vt1_cvohhxy
p849
sI848
Vt1_cwu8379
p850
sI849
Vt1_cvt34yc
p851
sI850
Vt1_cwpn96b
p852
sI851
Vt1_cvjtuht
p853
sI852
Vt1_cwxtujq
p854
sI853
Vt1_cwrlay6
p855
sI854
Vt1_cvu6vyz
p856
sI855
Vt1_cwsr4wn
p857
sI856
Vt1_cwvy9ry
p858
sI857
Vt1_cvq8c45
p859
sI858
Vt1_cwaegsj
p860
sI859
Vt1_cvurllj
p861
sI860
Vt1_cwu9mui
p862
sI861
Vt1_cwi6bx4
p863
sI862
Vt1_cwphxrl
p864
sI863
Vt1_cvvofzk
p865
sI864
Vt1_cw56qlj
p866
sI865
Vt1_cvu1p2m
p867
sI866
Vt1_cwd3s32
p868
sI867
Vt1_cve4kdg
p869
sI868
Vt1_cw3qcbp
p870
sI869
Vt1_cvtd35y
p871
sI870
Vt1_cweczml
p872
sI871
Vt1_cvsqjmn
p873
sI872
Vt1_cw4hfoz
p874
sI873
Vt1_cw0w62s
p875
sI874
Vt1_cwug4ts
p876
sI875
Vt1_cwenpi6
p877
sI876
Vt1_cwg2z47
p878
sI877
Vt1_cvtzwac
p879
sI878
Vt1_cwbol6r
p880
sI879
Vt1_cvj09m5
p881
sI880
Vt1_cvahfqe
p882
sI881
Vt1_cvr9742
p883
sI882
Vt1_cw8uwnn
p884
sI883
Vt1_cvua5uk
p885
sI884
Vt1_cw2hxoa
p886
sI885
Vt1_cwpc48x
p887
sI886
Vt1_cwgswis
p888
sI887
Vt1_cwx5adl
p889
sI888
Vt1_cvr548m
p890
sI889
Vt1_cvnhr2q
p891
sI890
Vt1_cwaty3e
p892
sI891
Vt1_cw7mnzt
p893
sI892
Vt1_cwqffvu
p894
sI893
Vt1_cvdz1be
p895
sI894
Vt1_cwu6xx7
p896
sI895
Vt1_cvw5pt9
p897
sI896
Vt1_cvp9ajb
p898
sI897
Vt1_cwvg1gm
p899
sI898
Vt1_cvpzons
p900
sI899
Vt1_cvydqym
p901
sI900
Vt1_cvkukut
p902
sI901
Vt1_cwwtvu0
p903
sI902
Vt1_cvpynv3
p904
sI903
Vt1_cwpcfu0
p905
sI904
Vt1_cvblkfz
p906
sI905
Vt1_cwfbe5f
p907
sI906
Vt1_cwatzln
p908
sI907
Vt1_cwqj454
p909
sI908
Vt1_cw4tvo9
p910
sI909
Vt1_cvc6jec
p911
sI910
Vt1_cwqq14h
p912
sI911
Vt1_cwng474
p913
sI912
Vt1_cvs7fdu
p914
sI913
Vt1_cwx8dv2
p915
sI914
Vt1_cwtnig2
p916
sI915
Vt1_cwxlrw1
p917
sI916
Vt1_cw5773e
p918
sI917
Vt1_cwa6rrs
p919
sI918
Vt1_cvsq5nr
p920
sI919
Vt1_cwieonu
p921
sI920
Vt1_cvpjhu1
p922
sI921
Vt1_cw19x1l
p923
sI922
Vt1_cvgfty5
p924
sI923
Vt1_cwvzqac
p925
sI924
Vt1_cwoh5g4
p926
sI925
Vt1_cw7d476
p927
sI926
Vt1_cvfhriq
p928
sI927
Vt1_cwhutmk
p929
sI928
Vt1_cwnayb2
p930
sI929
Vt1_cwfz64k
p931
sI930
Vt1_cwx5xwu
p932
sI931
Vt1_cws7sxz
p933
sI932
Vt1_cwmcytl
p934
sI933
Vt1_cwvgjet
p935
sI934
Vt1_cw5vg4t
p936
sI935
Vt1_cw6kve6
p937
sI936
Vt1_cwfscmc
p938
sI937
Vt1_cwiuve4
p939
sI938
Vt1_cwd5jta
p940
sI939
Vt1_cwqz84k
p941
sI940
Vt1_cwa8qv4
p942
sI941
Vt1_cwxpgtt
p943
sI942
Vt1_cvk3u75
p944
sI943
Vt1_cwba46s
p945
sI944
Vt1_cwxpppa
p946
sI945
Vt1_cw575u7
p947
sI946
Vt1_cvq6umd
p948
sI947
Vt1_cwiwx7m
p949
sI948
Vt1_cvve6rh
p950
sI949
Vt1_cw9oveu
p951
sI950
Vt1_cwnhnp2
p952
sI951
Vt1_cvju5r1
p953
sI952
Vt1_cvl9qhx
p954
sI953
Vt1_cwxg2kc
p955
sI954
Vt1_cvfcbgi
p956
sI955
Vt1_cwksq33
p957
sI956
Vt1_cwwuj0e
p958
sI957
Vt1_cw8iijf
p959
sI958
Vt1_cw6p7hq
p960
sI959
Vt1_cw81ue1
p961
sI960
Vt1_cw8srt9
p962
sI961
Vt1_cwbocss
p963
sI962
Vt1_cvbltuq
p964
sI963
Vt1_cwlazsx
p965
sI964
Vt1_cvtswhx
p966
sI965
Vt1_cvc04bn
p967
sI966
Vt1_cw6yfuz
p968
sI967
Vt1_cwew270
p969
sI968
Vt1_cvjp90y
p970
sI969
Vt1_cvb5f0s
p971
sI970
Vt1_cwh99sn
p972
sI971
Vt1_cw4bi97
p973
sI972
Vt1_cw52wtt
p974
sI973
Vt1_cvuws0j
p975
sI974
Vt1_cwt4278
p976
sI975
Vt1_cw9o1dm
p977
sI976
Vt1_cvntkja
p978
sI977
Vt1_cvjt31j
p979
sI978
Vt1_cw5288j
p980
sI979
Vt1_cwouf55
p981
sI980
Vt1_cwn6aeb
p982
sI981
Vt1_cw3dyms
p983
sI982
Vt1_cvslght
p984
sI983
Vt1_cwad8e7
p985
sI984
Vt1_cwm51zp
p986
sI985
Vt1_cw83lz3
p987
sI986
Vt1_cw2e66q
p988
sI987
Vt1_cw5k8p2
p989
sI988
Vt1_cwbfpce
p990
sI989
Vt1_cve2dh5
p991
sI990
Vt1_cw4pb9c
p992
sI991
Vt1_cwfl6w4
p993
sI992
Vt1_cvjf7y0
p994
sI993
Vt1_cwdd5id
p995
sI994
Vt1_cvojp80
p996
sI995
Vt1_cw6c0qy
p997
sI996
Vt1_cw3skx2
p998
sI997
Vt1_cwd0l7g
p999
sI998
Vt1_cvixa9o
p1000
sI999
Vt1_cwo2ye6
p1001
sI1000
Vt1_cvwka4i
p1002
sI1001
Vt1_cvrmhqj
p1003
sI1002
Vt1_cwx9sr3
p1004
sI1003
Vt1_cw1wel9
p1005
sI1004
Vt1_cvrq53g
p1006
sI1005
Vt1_cw2vgjc
p1007
sI1006
Vt1_cwrvmjf
p1008
sI1007
Vt1_cw862ep
p1009
sI1008
Vt1_cvlsn0f
p1010
sI1009
Vt1_cvo67rl
p1011
sI1010
Vt1_cwoacc0
p1012
sI1011
Vt1_cwvqrca
p1013
sI1012
Vt1_cvs2va2
p1014
sI1013
Vt1_cwhjxx4
p1015
sI1014
Vt1_cvl0ob1
p1016
sI1015
Vt1_cwnb98d
p1017
sI1016
Vt1_cwrvx0f
p1018
sI1017
Vt1_cwbg7nu
p1019
sI1018
Vt1_cvye2mh
p1020
sI1019
Vt1_cwogp3j
p1021
sI1020
Vt1_cw5ph5p
p1022
sI1021
Vt1_cvidrvf
p1023
sI1022
Vt1_cvoek70
p1024
sI1023
Vt1_cw3c2bs
p1025
sI1024
Vt1_cvyun5e
p1026
sI1025
Vt1_cvk3j0h
p1027
sI1026
Vt1_cvxjrej
p1028
sI1027
Vt1_cwdqoe0
p1029
sI1028
Vt1_cwvp52j
p1030
sI1029
Vt1_cvzpcpz
p1031
sI1030
Vt1_cw76eap
p1032
sI1031
Vt1_cw9pqqr
p1033
sI1032
Vt1_cwf0e2f
p1034
sI1033
Vt1_cvco8h4
p1035
sI1034
Vt1_cw58iax
p1036
sI1035
Vt1_cw09bzx
p1037
sI1036
Vt1_cwv6rj8
p1038
sI1037
Vt1_cvqwwow
p1039
sI1038
Vt1_cwu7nvm
p1040
sI1039
Vt1_cvj0a46
p1041
sI1040
Vt1_cw6q9w2
p1042
sI1041
Vt1_cvhc3rl
p1043
sI1042
Vt1_cvckegi
p1044
sI1043
Vt1_cwg41fr
p1045
sI1044
Vt1_cvmuja3
p1046
sI1045
Vt1_cvftd7m
p1047
sI1046
Vt1_cw3gcja
p1048
sI1047
Vt1_cw5z8kk
p1049
sI1048
Vt1_cvq15gk
p1050
sI1049
Vt1_cwctl85
p1051
sI1050
Vt1_cwcxcyw
p1052
sI1051
Vt1_cw2iiqk
p1053
sI1052
Vt1_cvnsuv8
p1054
sI1053
Vt1_cvnw0vv
p1055
sI1054
Vt1_cwq7aj5
p1056
sI1055
Vt1_cvm7s05
p1057
sI1056
Vt1_cv8heen
p1058
sI1057
Vt1_cw5ghcu
p1059
sI1058
Vt1_cwl74ny
p1060
sI1059
Vt1_cwpw5h3
p1061
sI1060
Vt1_cvwuwfc
p1062
sI1061
Vt1_cwcty8f
p1063
sI1062
Vt1_cvjk8oj
p1064
sI1063
Vt1_cwb5lkh
p1065
sI1064
Vt1_cw74k38
p1066
sI1065
Vt1_cwogf73
p1067
sI1066
Vt1_cvftaj2
p1068
sI1067
Vt1_cwasojq
p1069
sI1068
Vt1_cwhmnv0
p1070
sI1069
Vt1_cvzb0k8
p1071
sI1070
Vt1_cvh4wzp
p1072
sI1071
Vt1_cwd3zl3
p1073
sI1072
Vt1_cwn21ci
p1074
sI1073
Vt1_cvcemy1
p1075
sI1074
Vt1_cwm6cv8
p1076
sI1075
Vt1_cwv5bds
p1077
sI1076
Vt1_cvzn9m5
p1078
sI1077
Vt1_cwvkd6l
p1079
sI1078
Vt1_cw3muny
p1080
sI1079
Vt1_cwiy4gn
p1081
sI1080
Vt1_cwbk7o2
p1082
sI1081
Vt1_cvtvygg
p1083
sI1082
Vt1_cw6io3j
p1084
sI1083
Vt1_cwpc5np
p1085
sI1084
Vt1_cvs912q
p1086
sI1085
Vt1_cwn0obu
p1087
sI1086
Vt1_cvl8eaj
p1088
sI1087
Vt1_cvvqfrb
p1089
sI1088
Vt1_cvtutr9
p1090
sI1089
Vt1_cvexylc
p1091
sI1090
Vt1_cw5l21j
p1092
sI1091
Vt1_cwl9ccz
p1093
sI1092
Vt1_cvj09qd
p1094
sI1093
Vt1_cwvyi5c
p1095
sI1094
Vt1_cwpoawl
p1096
sI1095
Vt1_cvpl33x
p1097
sI1096
Vt1_cweagdt
p1098
sI1097
Vt1_cvxf8h3
p1099
sI1098
Vt1_cw60ikj
p1100
sI1099
Vt1_cvhovbw
p1101
sI1100
Vt1_cvdieid
p1102
sI1101
Vt1_cvk46c8
p1103
sI1102
Vt1_cwg4kvr
p1104
sI1103
Vt1_cvwiknd
p1105
sI1104
Vt1_cw7whtm
p1106
sI1105
Vt1_cw7bx6v
p1107
sI1106
Vt1_cwc9i1v
p1108
sI1107
Vt1_cvfebel
p1109
sI1108
Vt1_cvdbemc
p1110
sI1109
Vt1_cwbe87e
p1111
sI1110
Vt1_cw7ffe5
p1112
sI1111
Vt1_cwdefra
p1113
sI1112
Vt1_cvr1480
p1114
sI1113
Vt1_cvbrzyh
p1115
sI1114
Vt1_cvco767
p1116
sI1115
Vt1_cvypmvu
p1117
sI1116
Vt1_cwvkqh7
p1118
sI1117
Vt1_cwofmz8
p1119
sI1118
Vt1_cvgf2ky
p1120
sI1119
Vt1_cvp7rv4
p1121
sI1120
Vt1_cwuxy0b
p1122
sI1121
Vt1_cvpbmir
p1123
sI1122
Vt1_cwvuai0
p1124
sI1123
Vt1_cwcup7y
p1125
sI1124
Vt1_cvt3ktg
p1126
sI1125
Vt1_cvoopqv
p1127
sI1126
Vt1_cwogdu9
p1128
sI1127
Vt1_cwcqhl1
p1129
sI1128
Vt1_cwu7juv
p1130
sI1129
Vt1_cvpi8ky
p1131
sI1130
Vt1_cw0cbfd
p1132
sI1131
Vt1_cvdseyj
p1133
sI1132
Vt1_cwobj2b
p1134
sI1133
Vt1_cwq2p8m
p1135
sI1134
Vt1_cwv2udf
p1136
sI1135
Vt1_cvizlli
p1137
sI1136
Vt1_cw2xbea
p1138
sI1137
Vt1_cw6c3ou
p1139
sI1138
Vt1_cvj4d77
p1140
sI1139
Vt1_cw6ns2f
p1141
sI1140
Vt1_cvq4il2
p1142
sI1141
Vt1_cvffqwc
p1143
sI1142
Vt1_cvm73df
p1144
sI1143
Vt1_cwb6103
p1145
sI1144
Vt1_cvge6qj
p1146
sI1145
Vt1_cvgkl40
p1147
sI1146
Vt1_cwgbxu5
p1148
sI1147
Vt1_cvideyb
p1149
sI1148
Vt1_cwe1cey
p1150
sI1149
Vt1_cvrc2uy
p1151
sI1150
Vt1_cvqcu9p
p1152
sI1151
Vt1_cwg4wf8
p1153
sI1152
Vt1_cw1arev
p1154
sI1153
Vt1_cwgyc9l
p1155
sI1154
Vt1_cwctklj
p1156
sI1155
Vt1_cvojw4f
p1157
sI1156
Vt1_cw1cj6p
p1158
sI1157
Vt1_cw936gz
p1159
sI1158
Vt1_cvb415u
p1160
sI1159
Vt1_cwpxafh
p1161
sI1160
Vt1_cw9uml3
p1162
sI1161
Vt1_cvdj4rm
p1163
sI1162
Vt1_cvkfcxx
p1164
sI1163
Vt1_cw6lvlp
p1165
sI1164
Vt1_cwa1pcx
p1166
sI1165
Vt1_cwmz6d1
p1167
sI1166
Vt1_cvyebwj
p1168
sI1167
Vt1_cwn54nu
p1169
sI1168
Vt1_cwn72nh
p1170
sI1169
Vt1_cwxu1ia
p1171
sI1170
Vt1_cvtdw3p
p1172
sI1171
Vt1_cvrhbq4
p1173
sI1172
Vt1_cwdol07
p1174
sI1173
Vt1_cwlwvtj
p1175
sI1174
Vt1_cvtc17v
p1176
sI1175
Vt1_cw5jvx0
p1177
sI1176
Vt1_cvkvl5u
p1178
sI1177
Vt1_cwola39
p1179
sI1178
Vt1_cvhoizc
p1180
sI1179
Vt1_cvcjx22
p1181
sI1180
Vt1_cw9q0rz
p1182
sI1181
Vt1_cwmje6x
p1183
sI1182
Vt1_cvqu4lk
p1184
sI1183
Vt1_cvp63zg
p1185
sI1184
Vt1_cw7tkw4
p1186
sI1185
Vt1_cvf33an
p1187
sI1186
Vt1_cwoxkqt
p1188
sI1187
Vt1_cvtbg2i
p1189
sI1188
Vt1_cw09751
p1190
sI1189
Vt1_cvd2m7f
p1191
sI1190
Vt1_cw3zju6
p1192
sI1191
Vt1_cvqwd9x
p1193
sI1192
Vt1_cwowv60
p1194
sI1193
Vt1_cwjrf1z
p1195
sI1194
Vt1_cvsffh5
p1196
sI1195
Vt1_cwpcavo
p1197
sI1196
Vt1_cvne8l8
p1198
sI1197
Vt1_cwodsyj
p1199
sI1198
Vt1_cvydffw
p1200
sI1199
Vt1_cw6i2ct
p1201
sI1200
Vt1_cwu05gr
p1202
sI1201
Vt1_cvjdbh7
p1203
sI1202
Vt1_cwbwzlo
p1204
sI1203
Vt1_cwbley3
p1205
sI1204
Vt1_cwaki7q
p1206
sI1205
Vt1_cvsnay1
p1207
sI1206
Vt1_cw3geud
p1208
sI1207
Vt1_cvdp63z
p1209
sI1208
Vt1_cwbhdxp
p1210
sI1209
Vt1_cw6z7j0
p1211
sI1210
Vt1_cvbueke
p1212
sI1211
Vt1_cwn8die
p1213
sI1212
Vt1_cvawost
p1214
sI1213
Vt1_cwo0wh8
p1215
sI1214
Vt1_cw9rq5q
p1216
sI1215
Vt1_cvmizi6
p1217
sI1216
Vt1_cwi070r
p1218
sI1217
Vt1_cwkuyfy
p1219
sI1218
Vt1_cvfgz7o
p1220
sI1219
Vt1_cvqgkvz
p1221
sI1220
Vt1_cwobzgp
p1222
sI1221
Vt1_cwc7ed3
p1223
sI1222
Vt1_cwg65mg
p1224
sI1223
Vt1_cwpidwg
p1225
sI1224
Vt1_cwcrjf4
p1226
sI1225
Vt1_cwtscvd
p1227
sI1226
Vt1_cw39rq0
p1228
sI1227
Vt1_cwrjrj3
p1229
sI1228
Vt1_cwghfca
p1230
sI1229
Vt1_cwpveg5
p1231
sI1230
Vt1_cvkf46r
p1232
sI1231
Vt1_cw7svp5
p1233
sI1232
Vt1_cvckjmo
p1234
sI1233
Vt1_cwukb89
p1235
sI1234
Vt1_cwe68vp
p1236
sI1235
Vt1_cvulut9
p1237
sI1236
Vt1_cvvtql7
p1238
sI1237
Vt1_cwn1tgd
p1239
sI1238
Vt1_cvebe3f
p1240
sI1239
Vt1_cwrap6t
p1241
sI1240
Vt1_cvkxqj2
p1242
sI1241
Vt1_cwajg8z
p1243
sI1242
Vt1_cw2gpxu
p1244
sI1243
Vt1_cvs9u1s
p1245
sI1244
Vt1_cw4tz63
p1246
sI1245
Vt1_cwvqq80
p1247
sI1246
Vt1_cvlwxft
p1248
sI1247
Vt1_cwbi2as
p1249
sI1248
Vt1_cwx4tua
p1250
sI1249
Vt1_cvjm19o
p1251
sI1250
Vt1_cwkc2sa
p1252
sI1251
Vt1_cwxb0yx
p1253
sI1252
Vt1_cwn63dk
p1254
sI1253
Vt1_cwp68wv
p1255
sI1254
Vt1_cwe99se
p1256
sI1255
Vt1_cwoevb9
p1257
sI1256
Vt1_cw2uk08
p1258
sI1257
Vt1_cw4xg5g
p1259
sI1258
Vt1_cw13x7o
p1260
sI1259
Vt1_cvwd0bq
p1261
sI1260
Vt1_cvje3qt
p1262
sI1261
Vt1_cvoi9xa
p1263
sI1262
Vt1_cvmj37u
p1264
sI1263
Vt1_cwk3s64
p1265
sI1264
Vt1_cvxcql6
p1266
sI1265
Vt1_cvu1yhm
p1267
sI1266
Vt1_cw6swq6
p1268
sI1267
Vt1_cw411mq
p1269
sI1268
Vt1_cvr6rxd
p1270
sI1269
Vt1_cvz5vy4
p1271
sI1270
Vt1_cvffmp2
p1272
sI1271
Vt1_cwpgls9
p1273
sI1272
Vt1_cwrke2a
p1274
sI1273
Vt1_cvzgu5v
p1275
sI1274
Vt1_cwu8le7
p1276
sI1275
Vt1_cw80o29
p1277
sI1276
Vt1_cw1yk8v
p1278
sI1277
Vt1_cvdq20e
p1279
sI1278
Vt1_cwlfafk
p1280
sI1279
Vt1_cw0g7ol
p1281
sI1280
Vt1_cvzjjvz
p1282
sI1281
Vt1_cwngr5d
p1283
sI1282
Vt1_cwm8kvp
p1284
sI1283
Vt1_cvmbgjp
p1285
sI1284
Vt1_cwnwtat
p1286
sI1285
Vt1_cvzicyg
p1287
sI1286
Vt1_cvn9o63
p1288
sI1287
Vt1_cwvmeiz
p1289
sI1288
Vt1_cvtpsfg
p1290
sI1289
Vt1_cvrvxz7
p1291
sI1290
Vt1_cvhd6bb
p1292
sI1291
Vt1_cvjtfiz
p1293
sI1292
Vt1_cvkdzgs
p1294
sI1293
Vt1_cvys52v
p1295
sI1294
Vt1_cvbbfe0
p1296
sI1295
Vt1_cwj79cp
p1297
sI1296
Vt1_cwfdclt
p1298
sI1297
Vt1_cvn28gq
p1299
sI1298
Vt1_cwgrna6
p1300
sI1299
Vt1_cvntgto
p1301
sI1300
Vt1_cvjbwn8
p1302
sI1301
Vt1_cw974uj
p1303
sI1302
Vt1_cwstdp5
p1304
sI1303
Vt1_cvc45t1
p1305
sI1304
Vt1_cw2zh2c
p1306
sI1305
Vt1_cvuf5ai
p1307
sI1306
Vt1_cw2ttcw
p1308
sI1307
Vt1_cvdj7ir
p1309
sI1308
Vt1_cw3ca3j
p1310
sI1309
Vt1_cve4tqp
p1311
sI1310
Vt1_cw0k5gk
p1312
sI1311
Vt1_cw1vdwh
p1313
sI1312
Vt1_cved584
p1314
sI1313
Vt1_cwjq88u
p1315
sI1314
Vt1_cw43p25
p1316
sI1315
Vt1_cw5pu4r
p1317
sI1316
Vt1_cvlvrd3
p1318
sI1317
Vt1_cwcepi2
p1319
sI1318
Vt1_cvm8ufw
p1320
sI1319
Vt1_cwvude5
p1321
sI1320
Vt1_cvqbzvp
p1322
sI1321
Vt1_cwbjqou
p1323
sI1322
Vt1_cw9tz6j
p1324
sI1323
Vt1_cwecayf
p1325
sI1324
Vt1_cvrli6w
p1326
sI1325
Vt1_cw0xsa5
p1327
sI1326
Vt1_cvt3758
p1328
sI1327
Vt1_cwmu7sl
p1329
sI1328
Vt1_cvu41fr
p1330
sI1329
Vt1_cvfj980
p1331
sI1330
Vt1_cw7k49a
p1332
sI1331
Vt1_cwvnpxe
p1333
sI1332
Vt1_cvcoli6
p1334
sI1333
Vt1_cwpliz0
p1335
sI1334
Vt1_cw9qzpj
p1336
sI1335
Vt1_cw42h9b
p1337
sI1336
Vt1_cwg6bm6
p1338
sI1337
Vt1_cvvt3t7
p1339
sI1338
Vt1_cvzbusj
p1340
sI1339
Vt1_cwhl5kn
p1341
sI1340
Vt1_cw04r1v
p1342
sI1341
Vt1_cve08e9
p1343
sI1342
Vt1_cvg4p5z
p1344
sI1343
Vt1_cvwfzrg
p1345
sI1344
Vt1_cvkwsq4
p1346
sI1345
Vt1_cvrc3q2
p1347
sI1346
Vt1_cvinx6t
p1348
sI1347
Vt1_cvxnsqr
p1349
sI1348
Vt1_cw2j6m0
p1350
sI1349
Vt1_cwn95qu
p1351
sI1350
Vt1_cvjxzcq
p1352
sI1351
Vt1_cwrlruc
p1353
sI1352
Vt1_cvwa8ds
p1354
sI1353
Vt1_cwp3ouc
p1355
sI1354
Vt1_cw4izxd
p1356
sI1355
Vt1_cvtf31b
p1357
sI1356
Vt1_cwvpzf2
p1358
sI1357
Vt1_cwkg0w6
p1359
sI1358
Vt1_cvr68wz
p1360
sI1359
Vt1_cws2fa0
p1361
sI1360
Vt1_cw6mw3n
p1362
sI1361
Vt1_cvmdbk5
p1363
sI1362
Vt1_cvn2z8v
p1364
sI1363
Vt1_cw5oyjk
p1365
sI1364
Vt1_cvxpol1
p1366
sI1365
Vt1_cvcpdrv
p1367
sI1366
Vt1_cw48zam
p1368
sI1367
Vt1_cvxce96
p1369
sI1368
Vt1_cwiolhb
p1370
sI1369
Vt1_cwcc15i
p1371
sI1370
Vt1_cvjy23k
p1372
sI1371
Vt1_cvs2r0c
p1373
sI1372
Vt1_cwolqim
p1374
sI1373
Vt1_cwm9tm8
p1375
sI1374
Vt1_cwdr8hw
p1376
sI1375
Vt1_cwpvlhv
p1377
sI1376
Vt1_cvvekk1
p1378
sI1377
Vt1_cwu9nc7
p1379
sI1378
Vt1_cwbojb3
p1380
sI1379
Vt1_cwv0w0l
p1381
sI1380
Vt1_cww8o9q
p1382
sI1381
Vt1_cwabjsi
p1383
sI1382
Vt1_cwg5qmz
p1384
sI1383
Vt1_cwfhwkf
p1385
sI1384
Vt1_cwn6js4
p1386
sI1385
Vt1_cwbd0i9
p1387
sI1386
Vt1_cvm9e1j
p1388
sI1387
Vt1_cwpvn2h
p1389
sI1388
Vt1_cvjvcmp
p1390
sI1389
Vt1_cwidco6
p1391
sI1390
Vt1_cvznpr2
p1392
sI1391
Vt1_cw6pcv5
p1393
sI1392
Vt1_cw9u7pq
p1394
sI1393
Vt1_cvf15lt
p1395
sI1394
Vt1_cvrply4
p1396
sI1395
Vt1_cvr59p4
p1397
sI1396
Vt1_cvduxh6
p1398
sI1397
Vt1_cvjbf5f
p1399
sI1398
Vt1_cvc4xnx
p1400
sI1399
Vt1_cwpckjn
p1401
sI1400
Vt1_cwvnyd9
p1402
sI1401
Vt1_cwoocj1
p1403
sI1402
Vt1_cw1dp5z
p1404
sI1403
Vt1_cvnvocl
p1405
sI1404
Vt1_cw40b54
p1406
sI1405
Vt1_cvixuz5
p1407
sI1406
Vt1_cw12mzf
p1408
sI1407
Vt1_cw6qrwe
p1409
sI1408
Vt1_cvzhiki
p1410
sI1409
Vt1_cwpcpwv
p1411
sI1410
Vt1_cvc7g78
p1412
stp1413
.