(c__builtin__
set
p0
((lp1
Vt3_3mmgzr
p2
aVt3_3o15uj
p3
aVt3_3lxxq7
p4
aVt3_3ql0w8
p5
aVt3_3osxux
p6
aVt3_3mr2ir
p7
aVt3_3mzc6u
p8
aVt3_3rj3dr
p9
aVt3_3pzfwo
p10
aVt3_3nclqd
p11
aVt3_3qhtmg
p12
aVt3_3mrizv
p13
aVt3_3ordvx
p14
aVt3_3qntv4
p15
aVt3_3oq17f
p16
aVt3_3scdg8
p17
aVt3_3pejmt
p18
aVt3_3qdfmy
p19
aVt3_3s70oc
p20
aVt3_3o1t8i
p21
aVt3_3s54y1
p22
aVt3_3ppg21
p23
aVt3_3rn702
p24
aVt3_3rs29y
p25
aVt3_3oh55e
p26
aVt3_3rc5pt
p27
aVt3_3phfaw
p28
aVt3_3sbrro
p29
aVt3_3rdw96
p30
aVt3_3nt0d9
p31
aVt3_3maj6b
p32
aVt3_3ohueb
p33
aVt3_3r6s54
p34
aVt3_3ospra
p35
aVt3_3ov1nv
p36
aVt3_3rmcry
p37
aVt3_3o4hme
p38
aVt3_3n8bjt
p39
aVt3_3o2ugk
p40
aVt3_3nlxzo
p41
aVt3_3s82s5
p42
aVt3_3nhsu0
p43
aVt3_3qs02c
p44
aVt3_3ocxaj
p45
aVt3_3m8z61
p46
aVt3_3p72xb
p47
aVt3_3q7k3q
p48
aVt3_3o616z
p49
aVt3_3rfoxr
p50
aVt3_3muwy8
p51
aVt3_3p6cld
p52
aVt3_3ozoot
p53
aVt3_3q3sie
p54
aVt3_3n1sci
p55
aVt3_3normn
p56
aVt3_3mx2w6
p57
aVt3_3ry8vf
p58
aVt3_3qr8e3
p59
aVt3_3q279m
p60
aVt3_3nxt82
p61
aVt3_3s4ck0
p62
aVt3_3p13df
p63
aVt3_3nvwx8
p64
aVt3_3rl8w6
p65
aVt3_3qrsij
p66
aVt3_3m79kq
p67
aVt3_3sexfu
p68
aVt3_3p8rmk
p69
aVt3_3n19vw
p70
aVt3_3rw9cg
p71
aVt3_3mx9ku
p72
aVt3_3p2bm4
p73
aVt3_3s5ky4
p74
aVt3_3qup2f
p75
aVt3_3qi0g9
p76
aVt3_3mpvjg
p77
aVt3_3s540b
p78
aVt3_3q5lw4
p79
aVt3_3nuugi
p80
aVt3_3sbh83
p81
aVt3_3oxitc
p82
aVt3_3sjot5
p83
aVt3_3mv9af
p84
aVt3_3ni5eg
p85
aVt3_3mhgci
p86
aVt3_3riizs
p87
aVt3_3nqqrd
p88
aVt3_3o6nzh
p89
aVt3_3qq7mu
p90
aVt3_3ozojx
p91
aVt3_3pw559
p92
aVt3_3qaq8p
p93
aVt3_3pd06k
p94
aVt3_3siz6b
p95
aVt3_3nlxh5
p96
aVt3_3n4wy9
p97
aVt3_3ovdd5
p98
aVt3_3p5p6g
p99
aVt3_3opjgt
p100
aVt3_3q0k86
p101
aVt3_3pk0ve
p102
aVt3_3nvw5l
p103
aVt3_3rqdl1
p104
aVt3_3qu840
p105
aVt3_3ryqa9
p106
aVt3_3safrr
p107
aVt3_3n4ctq
p108
aVt3_3mb0rp
p109
aVt3_3m7ozl
p110
aVt3_3nubdt
p111
aVt3_3ohg8u
p112
aVt3_3nlc03
p113
aVt3_3s8ob6
p114
aVt3_3pbgvz
p115
aVt3_3qluho
p116
aVt3_3qhhdp
p117
aVt3_3pc53v
p118
aVt3_3r5w5s
p119
aVt3_3ninvq
p120
aVt3_3rnsfm
p121
aVt3_3p9s0w
p122
aVt3_3s6t6s
p123
aVt3_3qygox
p124
aVt3_3plgbs
p125
aVt3_3o89f2
p126
aVt3_3mjaq5
p127
aVt3_3sh3g8
p128
aVt3_3sfvoq
p129
aVt3_3oho31
p130
aVt3_3rch5i
p131
aVt3_3nvawr
p132
aVt3_3qkvzh
p133
aVt3_3p3mnx
p134
aVt3_3p04jv
p135
aVt3_3s3s5k
p136
aVt3_3ox8w2
p137
aVt3_3nysgi
p138
aVt3_3rdnyj
p139
aVt3_3nec0y
p140
aVt3_3ohfux
p141
aVt3_3na725
p142
aVt3_3oi2mh
p143
aVt3_3n0hen
p144
aVt3_3n42fg
p145
aVt3_3m6xvn
p146
aVt3_3q8lad
p147
aVt3_3n574y
p148
aVt3_3mnci3
p149
aVt3_3m54q5
p150
aVt3_3pe7nq
p151
aVt3_3rkksg
p152
aVt3_3ni2rm
p153
aVt3_3rkm96
p154
aVt3_3ri5n8
p155
aVt3_3r9m5z
p156
aVt3_3npgpc
p157
aVt3_3p0ds1
p158
aVt3_3nf8ql
p159
aVt3_3sbvju
p160
aVt3_3rn5p4
p161
aVt3_3raiog
p162
aVt3_3rtl4t
p163
aVt3_3qvob0
p164
aVt3_3qd8ll
p165
aVt3_3ohzpu
p166
aVt3_3q53e4
p167
aVt3_3nvro1
p168
aVt3_3oe9qm
p169
aVt3_3nslg5
p170
aVt3_3pftlb
p171
aVt3_3ri6ol
p172
aVt3_3ox6r7
p173
aVt3_3qn3kr
p174
aVt3_3sj647
p175
aVt3_3qqufw
p176
aVt3_3rw6ft
p177
aVt3_3pj95y
p178
aVt3_3rm4y6
p179
aVt3_3p3wwi
p180
aVt3_3sc6g0
p181
aVt3_3mmj2v
p182
aVt3_3nwxfp
p183
aVt3_3psmsp
p184
aVt3_3qgbxp
p185
aVt3_3rfgmu
p186
aVt3_3rehl3
p187
aVt3_3s6p3f
p188
aVt3_3obri6
p189
aVt3_3riscd
p190
aVt3_3po62y
p191
aVt3_3msku9
p192
aVt3_3nqa1z
p193
aVt3_3r4ejr
p194
aVt3_3m1a6p
p195
aVt3_3rqxi6
p196
aVt3_3nwjkx
p197
aVt3_3n8jvc
p198
aVt3_3n7h2a
p199
aVt3_3nhy1a
p200
aVt3_3rd4r3
p201
aVt3_3qqwzg
p202
aVt3_3m58tk
p203
aVt3_3mchaq
p204
aVt3_3r8xsd
p205
aVt3_3nuezh
p206
aVt3_3ogvex
p207
aVt3_3mxh56
p208
aVt3_3n63uc
p209
aVt3_3p9luh
p210
aVt3_3nmflz
p211
aVt3_3oopm5
p212
aVt3_3mkscc
p213
aVt3_3pf5rk
p214
aVt3_3neu73
p215
aVt3_3om6lj
p216
aVt3_3p5fn7
p217
aVt3_3ntjwd
p218
aVt3_3s5gwk
p219
aVt3_3pv37e
p220
aVt3_3puw1w
p221
aVt3_3o2usi
p222
aVt3_3r0wkv
p223
aVt3_3ra28h
p224
aVt3_3omzv1
p225
aVt3_3s5xfl
p226
aVt3_3pe2p7
p227
aVt3_3pqomk
p228
aVt3_3qgon1
p229
aVt3_3o5nu0
p230
aVt3_3medsy
p231
aVt3_3qu0g7
p232
aVt3_3ra91y
p233
aVt3_3sh5us
p234
aVt3_3oj5sc
p235
aVt3_3owy3b
p236
aVt3_3ne2u4
p237
aVt3_3qc46o
p238
aVt3_3s3js3
p239
aVt3_3n0chi
p240
aVt3_3oio6a
p241
aVt3_3mhbgl
p242
aVt3_3px9j0
p243
aVt3_3qu9ts
p244
aVt3_3pozl2
p245
aVt3_3q2zo7
p246
aVt3_3rskrt
p247
aVt3_3sc48x
p248
aVt3_3m1wqo
p249
aVt3_3nmqan
p250
aVt3_3m7a0e
p251
aVt3_3rv1u5
p252
aVt3_3qpj9g
p253
aVt3_3qnx32
p254
aVt3_3q9vsk
p255
aVt3_3ngf1m
p256
aVt3_3pfgvy
p257
aVt3_3nrlu3
p258
aVt3_3o54mu
p259
aVt3_3p5dx4
p260
aVt3_3pje0g
p261
aVt3_3pdyv6
p262
aVt3_3pobu0
p263
aVt3_3me6lr
p264
aVt3_3sbdk1
p265
aVt3_3q8vdc
p266
aVt3_3qk9ss
p267
aVt3_3q27mk
p268
aVt3_3nzj0y
p269
aVt3_3pe7mr
p270
aVt3_3mynof
p271
aVt3_3qk9x5
p272
aVt3_3rumyq
p273
aVt3_3rxq3n
p274
aVt3_3njdqt
p275
aVt3_3p1xpx
p276
aVt3_3m5iql
p277
aVt3_3q4xnk
p278
aVt3_3q764r
p279
aVt3_3nl2sq
p280
aVt3_3s2z0o
p281
aVt3_3qugom
p282
aVt3_3rhgor
p283
aVt3_3qb3vf
p284
aVt3_3pe78y
p285
aVt3_3nd36n
p286
aVt3_3o4807
p287
aVt3_3mjezn
p288
aVt3_3mile6
p289
aVt3_3mc6y0
p290
aVt3_3rpjig
p291
aVt3_3ms89s
p292
aVt3_3mczxh
p293
aVt3_3q7t2r
p294
aVt3_3lodwj
p295
aVt3_3riovl
p296
aVt3_3p4u7a
p297
aVt3_3pankf
p298
aVt3_3pcwux
p299
aVt3_3mqreb
p300
aVt3_3m3aj6
p301
aVt3_3odxnj
p302
aVt3_3m27ff
p303
aVt3_3rgd2b
p304
aVt3_3nb2sn
p305
aVt3_3qkuos
p306
aVt3_3ps89t
p307
aVt3_3oupxe
p308
aVt3_3m3c0z
p309
aVt3_3rlel3
p310
aVt3_3mbq2j
p311
aVt3_3sgued
p312
aVt3_3ot9dg
p313
aVt3_3ovwnj
p314
aVt3_3rd0wz
p315
aVt3_3qd2tm
p316
aVt3_3ragbj
p317
aVt3_3pwprl
p318
aVt3_3pzgmh
p319
aVt3_3oopr4
p320
aVt3_3shyb5
p321
aVt3_3nxup3
p322
aVt3_3rh99n
p323
aVt3_3oa5vp
p324
aVt3_3roewy
p325
aVt3_3mdfva
p326
aVt3_3r2d3n
p327
aVt3_3qvcej
p328
aVt3_3mt2p4
p329
aVt3_3pvgcb
p330
aVt3_3r3i90
p331
aVt3_3n4tl7
p332
aVt3_3puvdu
p333
aVt3_3rknzd
p334
aVt3_3qtwph
p335
aVt3_3n1vj9
p336
aVt3_3quj7y
p337
aVt3_3p6c8j
p338
aVt3_3mm22v
p339
aVt3_3q5vdm
p340
aVt3_3s5ciz
p341
aVt3_3seb2d
p342
aVt3_3pwk13
p343
aVt3_3pinwx
p344
aVt3_3mhcw2
p345
aVt3_3mjaet
p346
aVt3_3pychg
p347
aVt3_3rldx2
p348
aVt3_3q1d6r
p349
aVt3_3orxxl
p350
aVt3_3p3ml4
p351
aVt3_3lxmpn
p352
aVt3_3pex0m
p353
aVt3_3n9kzl
p354
aVt3_3or2v9
p355
aVt3_3rzuci
p356
aVt3_3m6gq5
p357
aVt3_3oltrm
p358
aVt3_3mz6pm
p359
aVt3_3ql1wn
p360
aVt3_3qh5fw
p361
aVt3_3rmsnz
p362
aVt3_3pkpz7
p363
aVt3_3pbsfq
p364
aVt3_3p1ip9
p365
aVt3_3qfe9u
p366
aVt3_3msxwe
p367
aVt3_3mnw0r
p368
aVt3_3qvldr
p369
aVt3_3ndyub
p370
aVt3_3nts3i
p371
aVt3_3o1vh4
p372
aVt3_3o0yyw
p373
aVt3_3p6oyj
p374
aVt3_3pq2hi
p375
aVt3_3myz7j
p376
aVt3_3qp4ie
p377
aVt3_3ray63
p378
aVt3_3n3bql
p379
aVt3_3n22n6
p380
aVt3_3pb83g
p381
aVt3_3p8vco
p382
aVt3_3olwo4
p383
aVt3_3m2auo
p384
aVt3_3mv826
p385
aVt3_3nuy9j
p386
aVt3_3osr51
p387
aVt3_3saobx
p388
aVt3_3oqurc
p389
aVt3_3n130x
p390
aVt3_3opzwb
p391
aVt3_3pu8tg
p392
aVt3_3q8467
p393
aVt3_3mzsmg
p394
aVt3_3p9dzc
p395
aVt3_3mar1h
p396
aVt3_3o7s9v
p397
aVt3_3qrlmj
p398
aVt3_3nu1km
p399
aVt3_3s8ac9
p400
aVt3_3p8707
p401
aVt3_3ribmq
p402
aVt3_3ncof7
p403
aVt3_3s7hmb
p404
aVt3_3pb5ks
p405
aVt3_3pbdgi
p406
aVt3_3rdvfa
p407
aVt3_3ndm8u
p408
aVt3_3nsaar
p409
aVt3_3rb6rb
p410
aVt3_3q6upx
p411
aVt3_3m4tq2
p412
aVt3_3odov7
p413
aVt3_3mcw72
p414
aVt3_3o54z3
p415
aVt3_3o2lef
p416
aVt3_3mxz7u
p417
aVt3_3piifx
p418
aVt3_3nrlrx
p419
aVt3_3oq3vi
p420
aVt3_3s1otp
p421
aVt3_3ohddv
p422
aVt3_3sazmz
p423
aVt3_3qzxym
p424
aVt3_3n1ddd
p425
aVt3_3n4vqm
p426
aVt3_3sbzdr
p427
aVt3_3mvo0k
p428
aVt3_3qw775
p429
aVt3_3mr6t0
p430
aVt3_3m2sw7
p431
aVt3_3pnp0y
p432
aVt3_3qyr5w
p433
aVt3_3pg4v2
p434
aVt3_3ryd0q
p435
aVt3_3obgor
p436
aVt3_3sayeh
p437
aVt3_3o0mkx
p438
aVt3_3oqejx
p439
aVt3_3mx5p0
p440
aVt3_3ow4nl
p441
aVt3_3m7hyk
p442
aVt3_3ofn95
p443
aVt3_3plhq5
p444
aVt3_3o29f6
p445
aVt3_3phnek
p446
aVt3_3nydcr
p447
aVt3_3pwxrg
p448
aVt3_3nwc2k
p449
aVt3_3nn3d0
p450
aVt3_3ncxfp
p451
aVt3_3qmbso
p452
aVt3_3n09l8
p453
aVt3_3rk25j
p454
aVt3_3m2v3j
p455
aVt3_3miuaq
p456
aVt3_3rdgdu
p457
aVt3_3n1o6v
p458
aVt3_3migev
p459
aVt3_3p3ohn
p460
aVt3_3s4eb6
p461
aVt3_3qnpmp
p462
aVt3_3q3kes
p463
aVt3_3q7h23
p464
aVt3_3map33
p465
aVt3_3r0p1a
p466
aVt3_3qwmq1
p467
aVt3_3pnx6n
p468
aVt3_3nraau
p469
aVt3_3ol1i1
p470
aVt3_3oq6yi
p471
aVt3_3savs5
p472
aVt3_3myrjr
p473
aVt3_3r3z00
p474
aVt3_3oz6yk
p475
aVt3_3q40nz
p476
aVt3_3p78fo
p477
aVt3_3mn2r2
p478
aVt3_3s9n5g
p479
aVt3_3rs3eg
p480
aVt3_3orldi
p481
aVt3_3pes58
p482
aVt3_3mbmyw
p483
aVt3_3s9n5v
p484
aVt3_3mxv7j
p485
aVt3_3pj3br
p486
aVt3_3n0tqw
p487
aVt3_3qq33x
p488
aVt3_3pi9g1
p489
aVt3_3rd0qs
p490
aVt3_3osuon
p491
aVt3_3o48q6
p492
aVt3_3onkae
p493
aVt3_3ntac6
p494
aVt3_3rj6vo
p495
aVt3_3olzcy
p496
aVt3_3qdno6
p497
aVt3_3nw6rj
p498
aVt3_3orfkc
p499
aVt3_3s2dfy
p500
aVt3_3q3b83
p501
aVt3_3rdh5m
p502
aVt3_3pmn8i
p503
aVt3_3mej8r
p504
aVt3_3ohubh
p505
aVt3_3q0sna
p506
aVt3_3lyk7o
p507
aVt3_3rupsa
p508
aVt3_3pirmx
p509
aVt3_3nxm7e
p510
aVt3_3o9a93
p511
aVt3_3p58c6
p512
aVt3_3qw0ft
p513
aVt3_3n4kym
p514
atp515
Rp516
(lp517
Vt1_cwxtujq
p518
aVt1_cwxu1ia
p519
aVt1_cwxph6v
p520
aVt1_cwxpgtt
p521
aVt1_cwxpppa
p522
aVt1_cwxqejp
p523
aVt1_cwxg2kc
p524
aVt1_cwvkd6l
p525
aVt1_cwxlrw1
p526
aVt1_cwvy9ry
p527
aVt1_cwx4tua
p528
aVt1_cwxa0cv
p529
aVt1_cwxa5bc
p530
aVt1_cwx9sr3
p531
aVt1_cwx84ad
p532
aVt1_cwxb0yx
p533
aVt1_cwx5adl
p534
aVt1_cwx5xwu
p535
aVt1_cwx762m
p536
aVt1_cwx7pup
p537
aVt1_cwx8dv2
p538
aVt1_cwx452k
p539
aVt1_cwx512c
p540
aVt1_cwx2zvq
p541
aVt1_cwwuj0e
p542
aVt1_cwwtvu0
p543
aVt1_cwwn5ic
p544
aVt1_cwwiwqf
p545
aVt1_cww4ycu
p546
aVt1_cwvnyd9
p547
aVt1_cwve8hb
p548
aVt1_cwv2udf
p549
aVt1_cwv1i82
p550
aVt1_cww8o9q
p551
aVt1_cwvytsy
p552
aVt1_cwvwis6
p553
aVt1_cwvwlwf
p554
aVt1_cwvzqac
p555
aVt1_cwvyi5c
p556
aVt1_cwvuqeb
p557
aVt1_cwvus88
p558
aVt1_cwvude5
p559
aVt1_cwvvs0h
p560
aVt1_cwvuai0
p561
aVt1_cwvn12i
p562
aVt1_cwvtjoj
p563
aVt1_cwvsnot
p564
aVt1_cwvpzf2
p565
aVt1_cwvqq80
p566
aVt1_cwvp52j
p567
aVt1_cwvqh54
p568
aVt1_cwvqrca
p569
aVt1_cwvmeiz
p570
aVt1_cwvnpxe
p571
aVt1_cwvkqh7
p572
aVt1_cwur15w
p573
aVt1_cwvgjet
p574
aVt1_cwv5bds
p575
aVt1_cwvg1gm
p576
aVt1_cwvhbe5
p577
aVt1_cwuxy0b
p578
aVt1_cwv6rj8
p579
aVt1_cwv7uja
p580
aVt1_cwv0w0l
p581
aVt1_cwunw7q
p582
aVt1_cwu9nc7
p583
aVt1_cwu7nvm
p584
aVt1_cwurlz3
p585
aVt1_cwusj9i
p586
aVt1_cwuspte
p587
aVt1_cwukb89
p588
aVt1_cwug4ts
p589
aVt1_cwu9mui
p590
aVt1_cwu8le7
p591
aVt1_cwuglzk
p592
aVt1_cwu7juv
p593
aVt1_cwu8379
p594
aVt1_cwu6xx7
p595
aVt1_cwtvaou
p596
aVt1_cwu05gr
p597
aVt1_cwt4278
p598
aVt1_cwtscvd
p599
aVt1_cwtnig2
p600
aVt1_cwtmt0q
p601
aVt1_cwsvg50
p602
aVt1_cwstdp5
p603
aVt1_cwsr4wn
p604
aVt1_cwsepif
p605
aVt1_cwsioco
p606
aVt1_cwrvx0f
p607
aVt1_cws82xu
p608
aVt1_cws7sxz
p609
aVt1_cws2fa0
p610
aVt1_cwrvmjf
p611
aVt1_cwrvmjf
p612
aVt1_cwru1pv
p613
aVt1_cwrlruc
p614
aVt1_cwrlay6
p615
aVt1_cwrjrj3
p616
aVt1_cwrke2a
p617
aVt1_cwrkvbn
p618
aVt1_cwrhytq
p619
aVt1_cwpesp0
p620
aVt1_cwrap6t
p621
aVt1_cwqq14h
p622
aVt1_cwqz84k
p623
aVt1_cwqyncn
p624
aVt1_cwqx661
p625
aVt1_cwq2p8m
p626
aVt1_cwqj454
p627
aVt1_cwqffvu
p628
aVt1_cwpxafh
p629
aVt1_cwq76vd
p630
aVt1_cwq7aj5
p631
aVt1_cwpn96b
p632
aVt1_cwpveg5
p633
aVt1_cwpvlhv
p634
aVt1_cwpvn2h
p635
aVt1_cwpw5h3
p636
aVt1_cwpp24e
p637
aVt1_cwpoawl
p638
aVt1_cwpi5n7
p639
aVt1_cwpliz0
p640
aVt1_cwphxrl
p641
aVt1_cwpgls9
p642
aVt1_cwpidwg
p643
aVt1_cwosz05
p644
aVt1_cwpdjwi
p645
aVt1_cwoxkqt
p646
aVt1_cwpchk9
p647
aVt1_cwpcpwv
p648
aVt1_cwpc48x
p649
aVt1_cwpc5np
p650
aVt1_cwpcavo
p651
aVt1_cwpcfu0
p652
aVt1_cwpckjn
p653
aVt1_cwpbvh9
p654
aVt1_cwp9n37
p655
aVt1_cwp021r
p656
aVt1_cwp68wv
p657
aVt1_cwp3ouc
p658
aVt1_cwp42s4
p659
aVt1_cwoba7k
p660
aVt1_cwobj2b
p661
aVt1_cwodsyj
p662
aVt1_cwoacc0
p663
aVt1_cwoocj1
p664
aVt1_cwolqim
p665
aVt1_cwouf55
p666
aVt1_cwowv60
p667
aVt1_cwohj60
p668
aVt1_cwoevb9
p669
aVt1_cwoh5g4
p670
aVt1_cwogdu9
p671
aVt1_cwogggv
p672
aVt1_cwola39
p673
aVt1_cwogf73
p674
aVt1_cwogp3j
p675
aVt1_cwofmz8
p676
aVt1_cwod83s
p677
aVt1_cwobzgp
p678
aVt1_cwo3zy1
p679
aVt1_cwo2ye6
p680
aVt1_cwnty11
p681
aVt1_cwo0wh8
p682
aVt1_cwnwtat
p683
aVt1_cwno0xy
p684
aVt1_cwng474
p685
aVt1_cwnf988
p686
aVt1_cwnayb2
p687
aVt1_cwnevhm
p688
aVt1_cwnhnp2
p689
aVt1_cwnk4vm
p690
aVt1_cwngr5d
p691
aVt1_cwnchqp
p692
aVt1_cwnb98d
p693
aVt1_cwn6aeb
p694
aVt1_cwn6kzp
p695
aVt1_cwn54nu
p696
aVt1_cwn72nh
p697
aVt1_cwn8die
p698
aVt1_cwn95qu
p699
aVt1_cwn63dk
p700
aVt1_cwn6js4
p701
aVt1_cwn1tgd
p702
aVt1_cwn21ci
p703
aVt1_cwmzdyf
p704
aVt1_cwn0obu
p705
aVt1_cwn0jxi
p706
aVt1_cwmz6d1
p707
aVt1_cwmt7pk
p708
aVt1_cwmu7sl
p709
aVt1_cwmqvvv
p710
aVt1_cwmfqe6
p711
aVt1_cwmjnme
p712
aVt1_cwmje6x
p713
aVt1_cwmcytl
p714
aVt1_cwm6ypa
p715
aVt1_cwmgoay
p716
aVt1_cwmbj3j
p717
aVt1_cwm9tm8
p718
aVt1_cwmarh5
p719
aVt1_cwm8kvp
p720
aVt1_cwm51zp
p721
aVt1_cwm6cv8
p722
aVt1_cwlwvtj
p723
aVt1_cwlfafk
p724
aVt1_cwlm10j
p725
aVt1_cwl9ccz
p726
aVt1_cwlazsx
p727
aVt1_cwl74ny
p728
aVt1_cwkuyfy
p729
aVt1_cwksq33
p730
aVt1_cwkc01x
p731
aVt1_cwki76i
p732
aVt1_cwkg0w6
p733
aVt1_cwkc2sa
p734
aVt1_cwk3s64
p735
aVt1_cwjq88u
p736
aVt1_cwjrf1z
p737
aVt1_cwjjxi4
p738
aVt1_cwiwx7m
p739
aVt1_cwjeba9
p740
aVt1_cwj79cp
p741
aVt1_cwj0gea
p742
aVt1_cwifsey
p743
aVt1_cwizkc2
p744
aVt1_cwiy4gn
p745
aVt1_cwiuve4
p746
aVt1_cwifc1g
p747
aVt1_cwifkxc
p748
aVt1_cwiolhb
p749
aVt1_cwile45
p750
aVt1_cwiktv4
p751
aVt1_cwii76r
p752
aVt1_cwiikfz
p753
aVt1_cwibvam
p754
aVt1_cwieonu
p755
aVt1_cwidco6
p756
aVt1_cwidubs
p757
aVt1_cwide4a
p758
aVt1_cwi6bx4
p759
aVt1_cwi294a
p760
aVt1_cwi070r
p761
aVt1_cwhutmk
p762
aVt1_cwhrvl5
p763
aVt1_cwhl5kn
p764
aVt1_cwhmnv0
p765
aVt1_cwhlf46
p766
aVt1_cwhjxx4
p767
aVt1_cwhd63h
p768
aVt1_cwh7nia
p769
aVt1_cwh99sn
p770
aVt1_cwgyc9l
p771
aVt1_cwghfca
p772
aVt1_cwguhbz
p773
aVt1_cwgswis
p774
aVt1_cwgsltu
p775
aVt1_cwgrna6
p776
aVt1_cwgbxu5
p777
aVt1_cwgjk1j
p778
aVt1_cwg5qmz
p779
aVt1_cwg4kvr
p780
aVt1_cwg41fr
p781
aVt1_cwg4wf8
p782
aVt1_cwg6bm6
p783
aVt1_cwg2z47
p784
aVt1_cwg5z0s
p785
aVt1_cwg65mg
p786
aVt1_cwg5qsj
p787
aVt1_cwfscmc
p788
aVt1_cwfz64k
p789
aVt1_cwfyo92
p790
aVt1_cwfl6w4
p791
aVt1_cwfhwkf
p792
aVt1_cwfdclt
p793
aVt1_cwfcsos
p794
aVt1_cwfczle
p795
aVt1_cwfbe5f
p796
aVt1_cwf44ud
p797
aVt1_cwf5geg
p798
aVt1_cwf4zo3
p799
aVt1_cwf0e2f
p800
aVt1_cwew270
p801
aVt1_cwenpi6
p802
aVt1_cwf0l49
p803
aVt1_cwenpi6
p804
aVt1_cweo3o8
p805
aVt1_cweoqjc
p806
aVt1_cwdol07
p807
aVt1_cwe99se
p808
aVt1_cwecvjl
p809
aVt1_cwee93s
p810
aVt1_cweczml
p811
aVt1_cwdf6lt
p812
aVt1_cwdefra
p813
aVt1_cwecayf
p814
aVt1_cweagdt
p815
aVt1_cwea0kq
p816
aVt1_cwe9qsl
p817
aVt1_cvznvnq
p818
aVt1_cwe68vp
p819
aVt1_cwdqoe0
p820
aVt1_cwe1cey
p821
aVt1_cwdr8hw
p822
aVt1_cwdlnc5
p823
aVt1_cwcup7y
p824
aVt1_cwdd5id
p825
aVt1_cwcqpmz
p826
aVt1_cwd5jta
p827
aVt1_cwd3t8v
p828
aVt1_cwd3zl3
p829
aVt1_cw52wtt
p830
aVt1_cwd3r4z
p831
aVt1_cwd3s32
p832
aVt1_cwd0l7g
p833
aVt1_cwcxwfm
p834
aVt1_cwcu7o7
p835
aVt1_cwcrjf4
p836
aVt1_cwcu3j4
p837
aVt1_cwcxcyw
p838
aVt1_cwcty8f
p839
aVt1_cwctrj0
p840
aVt1_cwctklj
p841
aVt1_cwctl85
p842
aVt1_cwcrxdf
p843
aVt1_cwcqhl1
p844
aVt1_cwcgvus
p845
aVt1_cwc7qsf
p846
aVt1_cwcepi2
p847
aVt1_cwc9i1v
p848
aVt1_cwccvlj
p849
aVt1_cwcc15i
p850
aVt1_cwc6rir
p851
aVt1_cwc7ed3
p852
aVt1_cwbocss
p853
aVt1_cwbrzd1
p854
aVt1_cwbq2r5
p855
aVt1_cwbwzlo
p856
aVt1_cwbvdfw
p857
aVt1_cwbvsn7
p858
aVt1_cwbuqg9
p859
aVt1_cwbley3
p860
aVt1_cwbnhw0
p861
aVt1_cwbnqn5
p862
aVt1_cwbojb3
p863
aVt1_cwbol6r
p864
aVt1_cwbjqou
p865
aVt1_cwbk7o2
p866
aVt1_cwb5lkh
p867
aVt1_cwbi2as
p868
aVt1_cwbfpce
p869
aVt1_cwbhdxp
p870
aVt1_cwbg7nu
p871
aVt1_cwbe87e
p872
aVt1_cwb9v9a
p873
aVt1_cwba46s
p874
aVt1_cwbd0i9
p875
aVt1_cwb6103
p876
aVt1_cwb5x62
p877
aVt1_cwaujlw
p878
aVt1_cwaty3e
p879
aVt1_cwasm64
p880
aVt1_cwasojq
p881
aVt1_cwatzln
p882
aVt1_cwajg8z
p883
aVt1_cwajrss
p884
aVt1_cwaki7q
p885
aVt1_cwad8e7
p886
aVt1_cwaegsj
p887
aVt1_cwabjsi
p888
aVt1_cwa8qv4
p889
aVt1_cwa6rrs
p890
aVt1_cwa1pcx
p891
aVt1_cwa36wp
p892
aVt1_cw974uj
p893
aVt1_cw8srt9
p894
aVt1_cw9uml3
p895
aVt1_cw9tz6j
p896
aVt1_cw9q0rz
p897
aVt1_cw9u7pq
p898
aVt1_cw9rq5q
p899
aVt1_cw8uwnn
p900
aVt1_cw9qzpj
p901
aVt1_cw9o1dm
p902
aVt1_cw974uj
p903
aVt1_cw9oveu
p904
aVt1_cw9pqqr
p905
aVt1_cw974uj
p906
aVt1_cw9c7t3
p907
aVt1_cw89dll
p908
aVt1_cw974uj
p909
aVt1_cw974uj
p910
aVt1_cw936gz
p911
aVt1_cw6p7hq
p912
aVt1_cw8iijf
p913
aVt1_cw8d91v
p914
aVt1_cw88fr7
p915
aVt1_cw84c66
p916
aVt1_cw862ep
p917
aVt1_cw81ue1
p918
aVt1_cw80o29
p919
aVt1_cw7mnzt
p920
aVt1_cw7d476
p921
aVt1_cw83lz3
p922
aVt1_cw7tkw4
p923
aVt1_cw7bx6v
p924
aVt1_cw7whtm
p925
aVt1_cw7k49a
p926
aVt1_cw7svp5
p927
aVt1_cw7ffe5
p928
aVt1_cw7k49a
p929
aVt1_cw74k38
p930
aVt1_cw7bp1y
p931
aVt1_cw76eap
p932
aVt1_cw6swq6
p933
aVt1_cw6z7j0
p934
aVt1_cw6yfuz
p935
aVt1_cw6io3j
p936
aVt1_cw6pcv5
p937
aVt1_cw6t49h
p938
aVt1_cw6i2ct
p939
aVt1_cw6lufy
p940
aVt1_cw4bi97
p941
aVt1_cw6q9w2
p942
aVt1_cw43p25
p943
aVt1_cw6qrwe
p944
aVt1_cw6nlz5
p945
aVt1_cw6oqjf
p946
aVt1_cw6oti9
p947
aVt1_cw6mw3n
p948
aVt1_cw6ns2f
p949
aVt1_cw6nwlr
p950
aVt1_cw6o00v
p951
aVt1_cw6kve6
p952
aVt1_cw6lvlp
p953
aVt1_cw1j6ty
p954
aVt1_cw1wel9
p955
aVt1_cw6cr5v
p956
aVt1_cw6c0qy
p957
aVt1_cw6c3ou
p958
aVt1_cw631nh
p959
aVt1_cw63onf
p960
aVt1_cw5z8kk
p961
aVt1_cw5vg4t
p962
aVt1_cw5xwkx
p963
aVt1_cw60ftp
p964
aVt1_cw60ikj
p965
aVt1_cw5pwsg
p966
aVt1_cvulut9
p967
aVt1_cw5pu4r
p968
aVt1_cw5r0sa
p969
aVt1_cw5oyjk
p970
aVt1_cw5pws5
p971
aVt1_cw5ph5p
p972
aVt1_cw4tpg7
p973
aVt1_cw5k8p2
p974
aVt1_cw5jvx0
p975
aVt1_cw5jkiy
p976
aVt1_cw5l21j
p977
aVt1_cw5ikgc
p978
aVt1_cw5ghcu
p979
aVt1_cw5jeug
p980
aVt1_cw5hdss
p981
aVt1_cw5hq8k
p982
aVt1_cw5iidk
p983
aVt1_cw1ka05
p984
aVt1_cw58iax
p985
aVt1_cw5aj1d
p986
aVt1_cw575u7
p987
aVt1_cw574hb
p988
aVt1_cw5773e
p989
aVt1_cw56qlj
p990
aVt1_cw51xoi
p991
aVt1_cw5288j
p992
aVt1_cw4yn1m
p993
aVt1_cw4x93h
p994
aVt1_cw4xg5g
p995
aVt1_cw4tvo9
p996
aVt1_cw4tz63
p997
aVt1_cw4vi7w
p998
aVt1_cw4pb9c
p999
aVt1_cw4izxd
p1000
aVt1_cw4hfoz
p1001
aVt1_cw4en06
p1002
aVt1_cw48zam
p1003
aVt1_cw0k5gk
p1004
aVt1_cw45grr
p1005
aVt1_cw1gx1x
p1006
aVt1_cw3zju6
p1007
aVt1_cw3x14v
p1008
aVt1_cw42h9b
p1009
aVt1_cw40b54
p1010
aVt1_cw411mq
p1011
aVt1_cw3z97u
p1012
aVt1_cw3skx2
p1013
aVt1_cw3qcbp
p1014
aVt1_cw3muny
p1015
aVt1_cw3dyms
p1016
aVt1_cw3geud
p1017
aVt1_cw3gcja
p1018
aVt1_cw3ca3j
p1019
aVt1_cw3ci5s
p1020
aVt1_cw3c2bs
p1021
aVt1_cw39rq0
p1022
aVt1_cw326qv
p1023
aVt1_cw2u80u
p1024
aVt1_cw2ttcw
p1025
aVt1_cw300ad
p1026
aVt1_cw2zk9z
p1027
aVt1_cw2zh2c
p1028
aVt1_cw17meq
p1029
aVt1_cw2xk8d
p1030
aVt1_cw2xbea
p1031
aVt1_cw2uk08
p1032
aVt1_cw2vgjc
p1033
aVt1_cw2j6m0
p1034
aVt1_cw2gpxu
p1035
aVt1_cw2hxoa
p1036
aVt1_cw2iiqk
p1037
aVt1_cw2e66q
p1038
aVt1_cw22l5p
p1039
aVt1_cw1of07
p1040
aVt1_cw1yk8v
p1041
aVt1_cw1wlvz
p1042
aVt1_cvzqxsp
p1043
aVt1_cw1vclj
p1044
aVt1_cw1vdwh
p1045
aVt1_cvzn9m5
p1046
aVt1_cw1r2wv
p1047
aVt1_cw0ygwo
p1048
aVt1_cw0g7ol
p1049
aVt1_cw1dp5z
p1050
aVt1_cw1dzzy
p1051
aVt1_cw1cj6p
p1052
aVt1_cw19x1l
p1053
aVt1_cw1arev
p1054
aVt1_cw0u584
p1055
aVt1_cw12mzf
p1056
aVt1_cw13x7o
p1057
aVt1_cw0xsa5
p1058
aVt1_cw0w62s
p1059
aVt1_cw0so4d
p1060
aVt1_cw0cbfd
p1061
aVt1_cw0anz2
p1062
aVt1_cw09751
p1063
aVt1_cw09bzx
p1064
aVt1_cw05jvb
p1065
aVt1_cvznvnq
p1066
aVt1_cw07g7s
p1067
aVt1_cw04r1v
p1068
aVt1_cvzvntn
p1069
aVt1_cvzudz0
p1070
aVt1_cvz5vy4
p1071
aVt1_cvzpcpz
p1072
aVt1_cvzrg5s
p1073
aVt1_cvzoaar
p1074
aVt1_cvznvnq
p1075
aVt1_cvzicyg
p1076
aVt1_cvznnms
p1077
aVt1_cvznpr2
p1078
aVt1_cvzmzun
p1079
aVt1_cvzgu5v
p1080
aVt1_cvzflr2
p1081
aVt1_cvzjjvz
p1082
aVt1_cvzhiki
p1083
aVt1_cvzbusj
p1084
aVt1_cvyun5e
p1085
aVt1_cvyvfkq
p1086
aVt1_cvzb0k8
p1087
aVt1_cvys52v
p1088
aVt1_cvyn1jy
p1089
aVt1_cvypmvu
p1090
aVt1_cvyh7m7
p1091
aVt1_cvydffw
p1092
aVt1_cvy52pf
p1093
aVt1_cvye2mh
p1094
aVt1_cvy5lpw
p1095
aVt1_cvydqym
p1096
aVt1_cvyebwj
p1097
aVt1_cvxeckg
p1098
aVt1_cvxvc54
p1099
aVt1_cvxpol1
p1100
aVt1_cvxjrej
p1101
aVt1_cvxnsqr
p1102
aVt1_cvxk35j
p1103
aVt1_cvxbf1r
p1104
aVt1_cvxf8h3
p1105
aVt1_cvxcql6
p1106
aVt1_cvxev4o
p1107
aVt1_cvxce96
p1108
aVt1_cvvsb8u
p1109
aVt1_cvwd0bq
p1110
aVt1_cvx8rkt
p1111
aVt1_cvwka4i
p1112
aVt1_cvwfzrg
p1113
aVt1_cvx92oc
p1114
aVt1_cvx4zc8
p1115
aVt1_cvx5miq
p1116
aVt1_cvwuwfc
p1117
aVt1_cvwiknd
p1118
aVt1_cvwgp4g
p1119
aVt1_cvw5qdk
p1120
aVt1_cvwa8ds
p1121
aVt1_cvw5pt9
p1122
aVt1_cvw4ths
p1123
aVt1_cvvqfrb
p1124
aVt1_cvtzwac
p1125
aVt1_cvvofzk
p1126
aVt1_cvvt3t7
p1127
aVt1_cvvtql7
p1128
aVt1_cvvfghd
p1129
aVt1_cvve6rh
p1130
aVt1_cvvekk1
p1131
aVt1_cvvapxq
p1132
aVt1_cvv793z
p1133
aVt1_cvuxv80
p1134
aVt1_cvuws0j
p1135
aVt1_cvuxh25
p1136
aVt1_cvuk1yi
p1137
aVt1_cvurllj
p1138
aVt1_cvumwfv
p1139
aVt1_cvu41fr
p1140
aVt1_cvuf5ai
p1141
aVt1_cvtpsfg
p1142
aVt1_cvua5uk
p1143
aVt1_cvu06qx
p1144
aVt1_cvtutr9
p1145
aVt1_cvu7liz
p1146
aVt1_cvu6vyz
p1147
aVt1_cvu1yhm
p1148
aVt1_cvu1p2m
p1149
aVt1_cvtvygg
p1150
aVt1_cvtswhx
p1151
aVt1_cvtlheo
p1152
aVt1_cvte5x6
p1153
aVt1_cvthi3f
p1154
aVt1_cvtf31b
p1155
aVt1_cvtdw3p
p1156
aVt1_cvtd35y
p1157
aVt1_cvtc9a0
p1158
aVt1_cvtcsj6
p1159
aVt1_cvtbg2i
p1160
aVt1_cvtc17v
p1161
aVt1_cvt3758
p1162
aVt1_cvt34yc
p1163
aVt1_cvt39c3
p1164
aVt1_cvt1sux
p1165
aVt1_cvt3ktg
p1166
aVt1_cvsze3f
p1167
aVt1_cvsq5nr
p1168
aVt1_cvsffh5
p1169
aVt1_cvsnay1
p1170
aVt1_cvsqjmn
p1171
aVt1_cvslght
p1172
aVt1_cvslwvm
p1173
aVt1_cvs2r0c
p1174
aVt1_cvsimnm
p1175
aVt1_cvsfhxu
p1176
aVt1_cvs9u1s
p1177
aVt1_cvs912q
p1178
aVt1_cvs7fdu
p1179
aVt1_cvs2va2
p1180
aVt1_cvs25dx
p1181
aVt1_cvr59p4
p1182
aVt1_cvrtxjh
p1183
aVt1_cvrwe1x
p1184
aVt1_cvrvxz7
p1185
aVt1_cvruugf
p1186
aVt1_cvrut24
p1187
aVt1_cvrq53g
p1188
aVt1_cvrmhqj
p1189
aVt1_cvrply4
p1190
aVt1_cvrfjij
p1191
aVt1_cvrli6w
p1192
aVt1_cvrc3q2
p1193
aVt1_cvrhbq4
p1194
aVt1_cvqwwow
p1195
aVt1_cvpzons
p1196
aVt1_cvp7rv4
p1197
aVt1_cvrc2uy
p1198
aVt1_cvrb9j7
p1199
aVt1_cvr9742
p1200
aVt1_cvr6rxd
p1201
aVt1_cvr5pd8
p1202
aVt1_cvr68wz
p1203
aVt1_cvr548m
p1204
aVt1_cvpynv3
p1205
aVt1_cvq4il2
p1206
aVt1_cvr2hif
p1207
aVt1_cvr1480
p1208
aVt1_cvr1cih
p1209
aVt1_cvr0zsh
p1210
aVt1_cvqwd9x
p1211
aVt1_cvqu4lk
p1212
aVt1_cvqu2nt
p1213
aVt1_cvqu0ae
p1214
aVt1_cvq4pre
p1215
aVt1_cvqo4zs
p1216
aVt1_cvqkbm8
p1217
aVt1_cvqgkvz
p1218
aVt1_cvqcu9p
p1219
aVt1_cvpl33x
p1220
aVt1_cvqbzvp
p1221
aVt1_cvq6q6c
p1222
aVt1_cvq8c45
p1223
aVt1_cvq6umd
p1224
aVt1_cvq15gk
p1225
aVt1_cvp9ajb
p1226
aVt1_cvp63zg
p1227
aVt1_cvphyz8
p1228
aVt1_cvpje52
p1229
aVt1_cvpi8ky
p1230
aVt1_cvpjhu1
p1231
aVt1_cvpekc1
p1232
aVt1_cvpbmir
p1233
aVt1_cvoarpy
p1234
aVt1_cvoek70
p1235
aVt1_cvoopqv
p1236
aVt1_cvojw4f
p1237
aVt1_cvoi9xa
p1238
aVt1_cvojp80
p1239
aVt1_cvoarpy
p1240
aVt1_cvohhxy
p1241
aVt1_cvoe7s9
p1242
aVt1_cvnf4ik
p1243
aVt1_cvo67rl
p1244
aVt1_cvm73df
p1245
aVt1_cvnu3qu
p1246
aVt1_cvnvocl
p1247
aVt1_cvnw0vv
p1248
aVt1_cvntgto
p1249
aVt1_cvntkja
p1250
aVt1_cvnsuv8
p1251
aVt1_cvntegx
p1252
aVt1_cvnk4hs
p1253
aVt1_cvnhr2q
p1254
aVt1_cvn9o63
p1255
aVt1_cvne8l8
p1256
aVt1_cvmtxcb
p1257
aVt1_cvnb15k
p1258
aVt1_cvn9dfa
p1259
aVt1_cvn2z8v
p1260
aVt1_cvlvrd3
p1261
aVt1_cvn28gq
p1262
aVt1_cvmy4kl
p1263
aVt1_cvmz7ke
p1264
aVt1_cvmtvoe
p1265
aVt1_cvmj37u
p1266
aVt1_cvmuja3
p1267
aVt1_cvmizi6
p1268
aVt1_cvkqn58
p1269
aVt1_cvmdbk5
p1270
aVt1_cvmbgjp
p1271
aVt1_cvmco3e
p1272
aVt1_cvlmsxa
p1273
aVt1_cvm8ufw
p1274
aVt1_cvm9e1j
p1275
aVt1_cvm7s05
p1276
aVt1_cvlwxft
p1277
aVt1_cvlsn0f
p1278
aVt1_cvlpvpa
p1279
aVt1_cvkwsq4
p1280
aVt1_cvkvl5u
p1281
aVt1_cvjtbc5
p1282
aVt1_cvl9qhx
p1283
aVt1_cvl8eaj
p1284
aVt1_cvl5z7i
p1285
aVt1_cvl0ob1
p1286
aVt1_cvkzqnl
p1287
aVt1_cvkxqj2
p1288
aVt1_cvkukut
p1289
aVt1_cvkfcxx
p1290
aVt1_cvkf46r
p1291
aVt1_cvkdzgs
p1292
aVt1_cvk6it4
p1293
aVt1_cvk46c8
p1294
aVt1_cvk46c8
p1295
aVt1_cvk2oel
p1296
aVt1_cvk2ktg
p1297
aVt1_cvk3fve
p1298
aVt1_cvk3u75
p1299
aVt1_cvjm19o
p1300
aVt1_cvk3j0h
p1301
aVt1_cvk4ffi
p1302
aVt1_cvk2uar
p1303
aVt1_cvjz6w6
p1304
aVt1_cvjy23k
p1305
aVt1_cvjwl8i
p1306
aVt1_cvjxzcq
p1307
aVt1_cvjtuht
p1308
aVt1_cvjvcmp
p1309
aVt1_cvju5r1
p1310
aVt1_cvjt31j
p1311
aVt1_cvjtfiz
p1312
aVt1_cvjs7nd
p1313
aVt1_cvjp90y
p1314
aVt1_cvjk8oj
p1315
aVt1_cvje3qt
p1316
aVt1_cvjf7y0
p1317
aVt1_cvjbf5f
p1318
aVt1_cvjdbh7
p1319
aVt1_cvjbwn8
p1320
aVt1_cvj4d77
p1321
aVt1_cvj09qd
p1322
aVt1_cvj09m5
p1323
aVt1_cvizlli
p1324
aVt1_cvj0a46
p1325
aVt1_cvixuz5
p1326
aVt1_cvixa9o
p1327
aVt1_cviya8o
p1328
aVt1_cvideyb
p1329
aVt1_cvirhcl
p1330
aVt1_cvinx6t
p1331
aVt1_cvike1r
p1332
aVt1_cvifh1y
p1333
aVt1_cvidrvf
p1334
aVt1_cvhvxmp
p1335
aVt1_cvhovbw
p1336
aVt1_cvhryhn
p1337
aVt1_cvhoizc
p1338
aVt1_cvhkga9
p1339
aVt1_cvhkli9
p1340
aVt1_cvh7z2e
p1341
aVt1_cvhc3rl
p1342
aVt1_cvhd6bb
p1343
aVt1_cvduxh6
p1344
aVt1_cve4kdg
p1345
aVt1_cvh4wzp
p1346
aVt1_cvge6qj
p1347
aVt1_cvh0km5
p1348
aVt1_cvgkl40
p1349
aVt1_cvgi4yy
p1350
aVt1_cvgjlrl
p1351
aVt1_cvgfty5
p1352
aVt1_cvgic2t
p1353
aVt1_cvgf2ky
p1354
aVt1_cvg4p5z
p1355
aVt1_cvg8xmz
p1356
aVt1_cvfnt9g
p1357
aVt1_cvftd7m
p1358
aVt1_cvftaj2
p1359
aVt1_cvfgz7o
p1360
aVt1_cv8heen
p1361
aVt1_cvfj980
p1362
aVt1_cvfhriq
p1363
aVt1_cvffmp2
p1364
aVt1_cvfebel
p1365
aVt1_cvffqwc
p1366
aVt1_cvfcbgi
p1367
aVt1_cvfbgqm
p1368
aVt1_cvf2uil
p1369
aVt1_cvdz1be
p1370
aVt1_cvf33an
p1371
aVt1_cvezmpk
p1372
aVt1_cvf15lt
p1373
aVt1_cvexylc
p1374
aVt1_cvebe3f
p1375
aVt1_cveeq8o
p1376
aVt1_cved584
p1377
aVt1_cveaqvf
p1378
aVt1_cve4tqp
p1379
aVt1_cve08e9
p1380
aVt1_cve2dh5
p1381
aVt1_cve0cn5
p1382
aVt1_cvdiulc
p1383
aVt1_cvdj7ir
p1384
aVt1_cvdp63z
p1385
aVt1_cvdq20e
p1386
aVt1_cvdseyj
p1387
aVt1_cvbltuq
p1388
aVt1_cvdieid
p1389
aVt1_cvdj4rm
p1390
aVt1_cvdg727
p1391
aVt1_cvdbemc
p1392
aVt1_cvd2m7f
p1393
aVt1_cvd2e9m
p1394
aVt1_cvct01i
p1395
aVt1_cvcnpah
p1396
aVt1_cvco8h4
p1397
aVt1_cvc66uv
p1398
aVt1_cvcpdrv
p1399
aVt1_cvco767
p1400
aVt1_cvcoli6
p1401
aVt1_cvcp4yt
p1402
aVt1_cvckegi
p1403
aVt1_cvcloij
p1404
aVt1_cvcjx22
p1405
aVt1_cvckjmo
p1406
aVt1_cvckpk0
p1407
aVt1_cvawost
p1408
aVt1_cvcemy1
p1409
aVt1_cvbo9gk
p1410
aVt1_cvc57g9
p1411
aVt1_cvc4xnx
p1412
aVt1_cvc6jec
p1413
aVt1_cvc7g78
p1414
aVt1_cvc45t1
p1415
aVt1_cvc04bn
p1416
aVt1_cvbueke
p1417
aVt1_cvblkfz
p1418
aVt1_cvbrzyh
p1419
aVt1_cvbc727
p1420
aVt1_cvbhnlj
p1421
aVt1_cvberfq
p1422
aVt1_cvbbfe0
p1423
aVt1_cvahfqe
p1424
aVt1_cvb5f0s
p1425
aVt1_cvb415u
p1426
atp1427
.