((dp0
Vt1_cvqu2nt
p1
Vt3_3nsaar
p2
sVt1_cwmfqe6
p3
Vt3_3raiog
p4
sVt1_cvgi4yy
p5
Vt3_3mnci3
p6
sVt1_cwx84ad
p7
Vt3_3sh3g8
p8
sVt1_cvf2uil
p9
Vt3_3mhbgl
p10
sVt1_cwn0jxi
p11
Vt3_3rd0qs
p12
sVt1_cw5r0sa
p13
Vt3_3pex0m
p14
sVt1_cvoe7s9
p15
Vt3_3ni5eg
p16
sVt1_cvnf4ik
p17
Vt3_3ne2u4
p18
sVt1_cwno0xy
p19
Vt3_3rfoxr
p20
sVt1_cwj0gea
p21
Vt3_3qwmq1
p22
sVt1_cvl5z7i
p23
Vt3_3n63uc
p24
sVt1_cwbrzd1
p25
Vt3_3q0sna
p26
sVt1_cwsvg50
p27
Vt3_3rzuci
p28
sVt1_cw0ygwo
p29
Vt3_3oq3vi
p30
sVt1_cvpekc1
p31
Vt3_3nmflz
p32
sVt1_cvxvc54
p33
Vt3_3ohg8u
p34
sVt1_cw4yn1m
p35
Vt3_3pbsfq
p36
sVt1_cvslwvm
p37
Vt3_3nzj0y
p38
sVt1_cwuspte
p39
Vt3_3s70oc
p40
sVt1_cw51xoi
p41
Vt3_3pc53v
p42
sVt1_cw88fr7
p43
Vt3_3pobu0
p44
sVt1_cvmy4kl
p45
Vt3_3nd36n
p46
sVt1_cwcqpmz
p47
Vt3_3q6upx
p48
sVt1_cvzqxsp
p49
Vt3_3oq3vi
p50
sVt1_cvzudz0
p51
Vt3_3orldi
p52
sVt1_cvxeckg
p53
Vt3_3ohg8u
p54
sVt1_cwf4zo3
p55
Vt3_3qgbxp
p56
sVt1_cwibvam
p57
Vt3_3qu0g7
p58
sVt1_cw326qv
p59
Vt3_3p3wwi
p60
sVt1_cwctrj0
p61
Vt3_3q7t2r
p62
sVt1_cvgjlrl
p63
Vt3_3mnci3
p64
sVt1_cwp021r
p65
Vt3_3rkm96
p66
sVt1_cws82xu
p67
Vt3_3rv1u5
p68
sVt1_cwn6kzp
p69
Vt3_3rdnyj
p70
sVt1_cvifh1y
p71
Vt3_3mv826
p72
sVt1_cvike1r
p73
Vt3_3msxwe
p74
sVt1_cvw5qdk
p75
Vt3_3ocxaj
p76
sVt1_cvkzqnl
p77
Vt3_3n09l8
p78
sVt1_cwx762m
p79
Vt3_3sgued
p80
sVt1_cweoqjc
p81
Vt3_3qfe9u
p82
sVt1_cwogggv
p83
Vt3_3ribmq
p84
sVt1_cvvapxq
p85
Vt3_3o89f2
p86
sVt1_cwmqvvv
p87
Vt3_3rc5pt
p88
sVt1_cvn9dfa
p89
Vt3_3nclqd
p90
sVt1_cwcu7o7
p91
Vt3_3q764r
p92
sVt1_cwd3r4z
p93
Vt3_3q8lad
p94
sVt1_cwcrxdf
p95
Vt3_3q7k3q
p96
sVt1_cvzrg5s
p97
Vt3_3ordvx
p98
sVt1_cvrut24
p99
Vt3_3nw6rj
p100
sVt1_cw0u584
p101
Vt3_3oupxe
p102
sVt1_cw1wlvz
p103
Vt3_3ozoot
p104
sVt1_cvr1cih
p105
Vt3_3nt0d9
p106
sVt1_cwb9v9a
p107
Vt3_3q0sna
p108
sVt1_cw5jkiy
p109
Vt3_3pe7nq
p110
sVt1_cwwiwqf
p111
Vt3_3sayeh
p112
sVt1_cw07g7s
p113
Vt3_3osxux
p114
sVt1_cwlm10j
p115
Vt3_3r3z00
p116
sVt1_cvuxv80
p117
Vt3_3o89f2
p118
sVt1_cwhd63h
p119
Vt3_3qp4ie
p120
sVt1_cvd2e9m
p121
Vt3_3m7a0e
p122
sVt1_cwxa5bc
p123
Vt3_3sgued
p124
sVt1_cwtvaou
p125
Vt3_3s3s5k
p126
sVt1_cwe9qsl
p127
Vt3_3q9vsk
p128
sVt1_cveeq8o
p129
Vt3_3me6lr
p130
sVt1_cvbo9gk
p131
Vt3_3m3aj6
p132
sVt1_cw6lufy
p133
Vt3_3pi9g1
p134
sVt1_cwgsltu
p135
Vt3_3qmbso
p136
sVt1_cvzvntn
p137
Vt3_3orfkc
p138
sVt1_cvsze3f
p139
Vt3_3o0mkx
p140
sVt1_cvcp4yt
p141
Vt3_3m7hyk
p142
sVt1_cwifc1g
p143
Vt3_3qugom
p144
sVt1_cvyn1jy
p145
Vt3_3omzv1
p146
sVt1_cw6oti9
p147
Vt3_3pirmx
p148
sVt1_cw3z97u
p149
Vt3_3p58c6
p150
sVt1_cw4en06
p151
Vt3_3p9s0w
p152
sVt1_cvhkli9
p153
Vt3_3mr6t0
p154
sVt1_cwbnqn5
p155
Vt3_3q2zo7
p156
sVt1_cvy52pf
p157
Vt3_3ol1i1
p158
sVt1_cvq4pre
p159
Vt3_3nmqan
p160
sVt1_cwtmt0q
p161
Vt3_3s2z0o
p162
sVt1_cvh7z2e
p163
Vt3_3mnw0r
p164
sVt1_cvqo4zs
p165
Vt3_3nrlrx
p166
sVt1_cwidubs
p167
Vt3_3qu9ts
p168
sVt1_cwp42s4
p169
Vt3_3rl8w6
p170
sVt1_cvk6it4
p171
Vt3_3n22n6
p172
sVt1_cvjwl8i
p173
Vt3_3n130x
p174
sVt1_cwcxwfm
p175
Vt3_3q8467
p176
sVt1_cvx92oc
p177
Vt3_3ohddv
p178
sVt1_cwbvdfw
p179
Vt3_3q3sie
p180
sVt1_cvhryhn
p181
Vt3_3msku9
p182
sVt1_cvhkga9
p183
Vt3_3mr6t0
p184
sVt1_cvk2oel
p185
Vt3_3m1a6p
p186
sVt1_cvdiulc
p187
Vt3_3mb0rp
p188
sVt1_cw84c66
p189
Vt3_3pnp0y
p190
sVt1_cwsepif
p191
Vt3_3ryd0q
p192
sVt1_cwasm64
p193
Vt3_3pzgmh
p194
sVt1_cvx5miq
p195
Vt3_3ogvex
p196
sVt1_cvbhnlj
p197
Vt3_3m2sw7
p198
sVt1_cwvn12i
p199
Vt3_3sayeh
p200
sVt1_cw5ikgc
p201
Vt3_3pe2p7
p202
sVt1_cvphyz8
p203
Vt3_3nmqan
p204
sVt1_cvxev4o
p205
Vt3_3ohzpu
p206
sVt1_cvwgp4g
p207
Vt3_3oe9qm
p208
sVt1_cvvsb8u
p209
Vt3_3obri6
p210
sVt1_cwqyncn
p211
Vt3_3rs3eg
p212
sVt1_cwnk4vm
p213
Vt3_3rdh5m
p214
sVt1_cw6nlz5
p215
Vt3_3pinwx
p216
sVt1_cwunw7q
p217
Vt3_3s6p3f
p218
sVt1_cvuk1yi
p219
Vt3_3o6nzh
p220
sVt1_cvx4zc8
p221
Vt3_3oh55e
p222
sVt1_cviya8o
p223
Vt3_3mx9ku
p224
sVt1_cveaqvf
p225
Vt3_3mdfva
p226
sVt1_cvmtxcb
p227
Vt3_3ncof7
p228
sVt1_cwnf988
p229
Vt3_3rdh5m
p230
sVt1_cvg8xmz
p231
Vt3_3mmgzr
p232
sVt1_cwea0kq
p233
Vt3_3q9vsk
p234
sVt1_cwile45
p235
Vt3_3quj7y
p236
sVt1_cvk2ktg
p237
Vt3_3n1sci
p238
sVt1_cw9c7t3
p239
Vt3_3phnek
p240
sVt1_cvthi3f
p241
Vt3_3o2lef
p242
sVt1_cww4ycu
p243
Vt3_3sayeh
p244
sVt1_cvk4ffi
p245
Vt3_3n1vj9
p246
sVt1_cw2u80u
p247
Vt3_3p2bm4
p248
sVt1_cvw4ths
p249
Vt3_3ocxaj
p250
sVt1_cwdf6lt
p251
Vt3_3q9vsk
p252
sVt1_cvh0km5
p253
Vt3_3mn2r2
p254
sVt1_cwgjk1j
p255
Vt3_3qluho
p256
sVt1_cwbq2r5
p257
Vt3_3q0sna
p258
sVt1_cwrhytq
p259
Vt3_3rumyq
p260
sVt1_cwmt7pk
p261
Vt3_3ray63
p262
sVt1_cwwn5ic
p263
Vt3_3seb2d
p264
sVt1_cvmtvoe
p265
Vt3_3ncof7
p266
sVt1_cwrkvbn
p267
Vt3_3rupsa
p268
sVt1_cwnty11
p269
Vt3_3rfgmu
p270
sVt1_cvcnpah
p271
Vt3_3m7a0e
p272
sVt1_cvzflr2
p273
Vt3_3oq6yi
p274
sVt1_cwbvsn7
p275
Vt3_3q40nz
p276
sVt1_cwvus88
p277
Vt3_3sbvju
p278
sVt1_cwifkxc
p279
Vt3_3qugom
p280
sVt1_cwpesp0
p281
Vt3_3rj6vo
p282
sVt1_cwvytsy
p283
Vt3_3scdg8
p284
sVt1_cvu7liz
p285
Vt3_3o54z3
p286
sVt1_cw6nwlr
p287
Vt3_3pirmx
p288
sVt1_cwmjnme
p289
Vt3_3rb6rb
p290
sVt1_cw5jeug
p291
Vt3_3pe2p7
p292
sVt1_cvr5pd8
p293
Vt3_3nts3i
p294
sVt1_cvct01i
p295
Vt3_3m2sw7
p296
sVt1_cw5aj1d
p297
Vt3_3pd06k
p298
sVt1_cvpje52
p299
Vt3_3nn3d0
p300
sVt1_cwvtjoj
p301
Vt3_3sbrro
p302
sVt1_cw2xk8d
p303
Vt3_3p3ohn
p304
sVt1_cvqu0ae
p305
Vt3_3nsaar
p306
sVt1_cwhrvl5
p307
Vt3_3qrsij
p308
sVt1_cvznvnq
p309
Vt3_3oopr4
p310
sVt1_cwp9n37
p311
Vt3_3rm4y6
p312
sVt1_cw6cr5v
p313
Vt3_3phfaw
p314
sVt1_cvgic2t
p315
Vt3_3mnci3
p316
sVt1_cvq6q6c
p317
Vt3_3npgpc
p318
sVt1_cwkc01x
p319
Vt3_3r0p1a
p320
sVt1_cve0cn5
p321
Vt3_3mb0rp
p322
sVt1_cwizkc2
p323
Vt3_3qvob0
p324
sVt1_cvsfhxu
p325
Vt3_3nydcr
p326
sVt1_cwpbvh9
p327
Vt3_3rmcry
p328
sVt1_cw1of07
p329
Vt3_3oxitc
p330
sVt1_cwifsey
p331
Vt3_3qu0g7
p332
sVt1_cvfbgqm
p333
Vt3_3mhbgl
p334
sVt1_cwx2zvq
p335
Vt3_3sgued
p336
sVt1_cwc7qsf
p337
Vt3_3q4xnk
p338
sVt1_cwb5x62
p339
Vt3_3q0sna
p340
sVt1_cwm6ypa
p341
Vt3_3r9m5z
p342
sVt1_cwfczle
p343
Vt3_3qi0g9
p344
sVt1_cvtcsj6
p345
Vt3_3o1t8i
p346
sVt1_cwxa0cv
p347
Vt3_3sgued
p348
sVt1_cwmarh5
p349
Vt3_3ra91y
p350
sVt1_cw1dzzy
p351
Vt3_3ov1nv
p352
sVt1_cwfcsos
p353
Vt3_3qi0g9
p354
sVt1_cvntegx
p355
Vt3_3ngf1m
p356
sVt1_cvlmsxa
p357
Vt3_3n7h2a
p358
sVt1_cvu06qx
p359
Vt3_3o4hme
p360
sVt1_cwvhbe5
p361
Vt3_3safrr
p362
sVt1_cw4tpg7
p363
Vt3_3p9luh
p364
sVt1_cvc57g9
p365
Vt3_3m54q5
p366
sVt1_cvmco3e
p367
Vt3_3na725
p368
sVt1_cw6t49h
p369
Vt3_3pi9g1
p370
sVt1_cwx7pup
p371
Vt3_3sgued
p372
sVt1_cvsimnm
p373
Vt3_3nysgi
p374
sVt1_cvuxh25
p375
Vt3_3o89f2
p376
sVt1_cw3x14v
p377
Vt3_3p6c8j
p378
sVt1_cvrtxjh
p379
Vt3_3nsaar
p380
sVt1_cvy5lpw
p381
Vt3_3ol1i1
p382
sVt1_cw89dll
p383
Vt3_3pj95y
p384
sVt1_cvumwfv
p385
Vt3_3o2ugk
p386
sVt1_cwq76vd
p387
Vt3_3rpjig
p388
sVt1_cwsioco
p389
Vt3_3ryqa9
p390
sVt1_cwcu3j4
p391
Vt3_3q764r
p392
sVt1_cw574hb
p393
Vt3_3pcwux
p394
sVt1_cw6oqjf
p395
Vt3_3pirmx
p396
sVt1_cvk3fve
p397
Vt3_3n1sci
p398
sVt1_cvrfjij
p399
Vt3_3nuugi
p400
sVt1_cwnevhm
p401
Vt3_3rdh5m
p402
sVt1_cvzmzun
p403
Vt3_3oqejx
p404
sVt1_cvt1sux
p405
Vt3_3o0yyw
p406
sVt1_cwpdjwi
p407
Vt3_3rmcry
p408
sVt1_cw1gx1x
p409
Vt3_3ox6r7
p410
sVt1_cwvsnot
p411
Vt3_3sazmz
p412
sVt1_cwiikfz
p413
Vt3_3qup2f
p414
sVt1_cwbnhw0
p415
Vt3_3q2zo7
p416
sVt1_cwf44ud
p417
Vt3_3qgbxp
p418
sVt1_cw8d91v
p419
Vt3_3ppg21
p420
sVt1_cwohj60
p421
Vt3_3rdnyj
p422
sVt1_cvlpvpa
p423
Vt3_3n4ctq
p424
sVt1_cwvuqeb
p425
Vt3_3sbvju
p426
sVt1_cwecvjl
p427
Vt3_3qdno6
p428
sVt1_cwg5z0s
p429
Vt3_3ql0w8
p430
sVt1_cwguhbz
p431
Vt3_3qntv4
p432
sVt1_cwee93s
p433
Vt3_3qdno6
p434
sVt1_cwdlnc5
p435
Vt3_3qaq8p
p436
sVt1_cvmz7ke
p437
Vt3_3nd36n
p438
sVt1_cwh7nia
p439
Vt3_3qpj9g
p440
sVt1_cwccvlj
p441
Vt3_3q5lw4
p442
sVt1_cw1vclj
p443
Vt3_3ozojx
p444
sVt1_cvruugf
p445
Vt3_3nw6rj
p446
sVt1_cwvqh54
p447
Vt3_3sbh83
p448
sVt1_cwi294a
p449
Vt3_3qp4ie
p450
sVt1_cvqkbm8
p451
Vt3_3nraau
p452
sVt1_cvberfq
p453
Vt3_3m27ff
p454
sVt1_cvkqn58
p455
Vt3_3n4kym
p456
sVt1_cwx512c
p457
Vt3_3sgued
p458
sVt1_cw4x93h
p459
Vt3_3pbgvz
p460
sVt1_cw2zk9z
p461
Vt3_3p3mnx
p462
sVt1_cvfnt9g
p463
Vt3_3mhbgl
p464
sVt1_cvr2hif
p465
Vt3_3nt0d9
p466
sVt1_cwf0l49
p467
Vt3_3qgon1
p468
sVt1_cwx452k
p469
Vt3_3sgued
p470
sVt1_cw0anz2
p471
Vt3_3ot9dg
p472
sVt1_cvrwe1x
p473
Vt3_3nwc2k
p474
sVt1_cvrb9j7
p475
Vt3_3nubdt
p476
sVt1_cvc66uv
p477
Vt3_3m58tk
p478
sVt1_cwv1i82
p479
Vt3_3s5ky4
p480
sVt1_cvyh7m7
p481
Vt3_3om6lj
p482
sVt1_cwjeba9
p483
Vt3_3qygox
p484
sVt1_cwvwlwf
p485
Vt3_3sc6g0
p486
sVt1_cweo3o8
p487
Vt3_3qfe9u
p488
sVt1_cwaujlw
p489
Vt3_3pzfwo
p490
sVt1_cvt39c3
p491
Vt3_3o15uj
p492
sVt1_cwru1pv
p493
Vt3_3rw6ft
p494
sVt1_cw45grr
p495
Vt3_3p8vco
p496
sVt1_cwmgoay
p497
Vt3_3ra28h
p498
sVt1_cwnchqp
p499
Vt3_3rehl3
p500
sVt1_cwg5qsj
p501
Vt3_3ql0w8
p502
sVt1_cw60ftp
p503
Vt3_3pf5rk
p504
sVt1_cwc6rir
p505
Vt3_3q53e4
p506
sVt1_cvv793z
p507
Vt3_3o9a93
p508
sVt1_cw300ad
p509
Vt3_3p2bm4
p510
sVt1_cw5iidk
p511
Vt3_3pe2p7
p512
sVt1_cwide4a
p513
Vt3_3qtwph
p514
sVt1_cwpchk9
p515
Vt3_3rmcry
p516
sVt1_cwo3zy1
p517
Vt3_3rhgor
p518
sVt1_cwxph6v
p519
Vt3_3sj647
p520
sVt1_cw6o00v
p521
Vt3_3pinwx
p522
sVt1_cwusj9i
p523
Vt3_3s7hmb
p524
sVt1_cw3ci5s
p525
Vt3_3p5p6g
p526
sVt1_cw4vi7w
p527
Vt3_3pb83g
p528
sVt1_cwa36wp
p529
Vt3_3pwprl
p530
sVt1_cvezmpk
p531
Vt3_3mhbgl
p532
sVt1_cwd3t8v
p533
Vt3_3q8lad
p534
sVt1_cw631nh
p535
Vt3_3pg4v2
p536
sVt1_cwmbj3j
p537
Vt3_3ragbj
p538
sVt1_cw1r2wv
p539
Vt3_3oz6yk
p540
sVt1_cwjjxi4
p541
Vt3_3qyr5w
p542
sVt1_cwurlz3
p543
Vt3_3s6t6s
p544
sVt1_cvyvfkq
p545
Vt3_3onkae
p546
sVt1_cw1ka05
p547
Vt3_3orxxl
p548
sVt1_cvznnms
p549
Vt3_3oopr4
p550
sVt1_cvcloij
p551
Vt3_3m6xvn
p552
sVt1_cwiktv4
p553
Vt3_3qrlmj
p554
sVt1_cvvfghd
p555
Vt3_3oa5vp
p556
sVt1_cvnu3qu
p557
Vt3_3ngf1m
p558
sVt1_cw05jvb
p559
Vt3_3osr51
p560
sVt1_cvjz6w6
p561
Vt3_3n1ddd
p562
sVt1_cwv7uja
p563
Vt3_3s7hmb
p564
sVt1_cw1j6ty
p565
Vt3_3ox8w2
p566
sVt1_cw63onf
p567
Vt3_3pg4v2
p568
sVt1_cvnk4hs
p569
Vt3_3nf8ql
p570
sVt1_cvx8rkt
p571
Vt3_3oh55e
p572
sVt1_cw7bp1y
p573
Vt3_3plgbs
p574
sVt1_cwqx661
p575
Vt3_3rs29y
p576
sVt1_cwcgvus
p577
Vt3_3q53e4
p578
sVt1_cw5pwsg
p579
Vt3_3pes58
p580
sVt1_cwuglzk
p581
Vt3_3s5xfl
p582
sVt1_cw0so4d
p583
Vt3_3ovdd5
p584
sVt1_cvdg727
p585
Vt3_3map33
p586
sVt1_cwoba7k
p587
Vt3_3ri5n8
p588
sVt1_cwod83s
p589
Vt3_3riizs
p590
sVt1_cwosz05
p591
Vt3_3ri6ol
p592
sVt1_cwki76i
p593
Vt3_3r2d3n
p594
sVt1_cvhvxmp
p595
Vt3_3mt2p4
p596
sVt1_cwajrss
p597
Vt3_3pychg
p598
sVt1_cwxqejp
p599
Vt3_3sgued
p600
sVt1_cvte5x6
p601
Vt3_3o1vh4
p602
sVt1_cw5hq8k
p603
Vt3_3pdyv6
p604
sVt1_cw17meq
p605
Vt3_3oupxe
p606
sVt1_cw5xwkx
p607
Vt3_3pf5rk
p608
sVt1_cvzoaar
p609
Vt3_3or2v9
p610
sVt1_cvr0zsh
p611
Vt3_3nt0d9
p612
sVt1_cvjtbc5
p613
Vt3_3n0hen
p614
sVt1_cwpi5n7
p615
Vt3_3rn5p4
p616
sVt1_cvxk35j
p617
Vt3_3ohfux
p618
sVt1_cwfyo92
p619
Vt3_3qk9x5
p620
sVt1_cvxbf1r
p621
Vt3_3ohubh
p622
sVt1_cwvvs0h
p623
Vt3_3sbzdr
p624
sVt1_cwii76r
p625
Vt3_3qup2f
p626
sVt1_cvtlheo
p627
Vt3_3o2usi
p628
sVt1_cwmzdyf
p629
Vt3_3rd0wz
p630
sVt1_cwhlf46
p631
Vt3_3qqwzg
p632
sVt1_cwpp24e
p633
Vt3_3rnsfm
p634
sVt1_cvckpk0
p635
Vt3_3m6xvn
p636
sVt1_cvjs7nd
p637
Vt3_3n0chi
p638
sVt1_cvbc727
p639
Vt3_3m1wqo
p640
sVt1_cw22l5p
p641
Vt3_3p0ds1
p642
sVt1_cw5pws5
p643
Vt3_3pe78y
p644
sVt1_cvoarpy
p645
Vt3_3nhsu0
p646
sVt1_cwur15w
p647
Vt3_3s54y1
p648
sVt1_cwf5geg
p649
Vt3_3qgon1
p650
sVt1_cwvwis6
p651
Vt3_3sc6g0
p652
sVt1_cvirhcl
p653
Vt3_3mvo0k
p654
sVt1_cvs25dx
p655
Vt3_3nwxfp
p656
sVt1_cwbuqg9
p657
Vt3_3q3kes
p658
sVt1_cvnb15k
p659
Vt3_3ncof7
p660
sVt1_cw5hdss
p661
Vt3_3pdyv6
p662
sVt1_cvtc9a0
p663
Vt3_3o1vh4
p664
sVt1_cvk2uar
p665
Vt3_3n1o6v
p666
sVt1_cwve8hb
p667
Vt3_3s5ky4
p668
sVt1_cvohhxy
p669
Vt3_3ninvq
p670
sVt1_cwu8379
p671
Vt3_3s5ciz
p672
sVt1_cvt34yc
p673
Vt3_3o15uj
p674
sVt1_cwpn96b
p675
Vt3_3rldx2
p676
sVt1_cvjtuht
p677
Vt3_3n0tqw
p678
sVt1_cwxtujq
p679
Vt3_3sjot5
p680
sVt1_cwrlay6
p681
Vt3_3rumyq
p682
sVt1_cvu6vyz
p683
Vt3_3o54mu
p684
sVt1_cwsr4wn
p685
Vt3_3ry8vf
p686
sVt1_cwvy9ry
p687
Vt3_3sc48x
p688
sVt1_cvq8c45
p689
Vt3_3nmflz
p690
sVt1_cwaegsj
p691
Vt3_3px9j0
p692
sVt1_cvurllj
p693
Vt3_3o7s9v
p694
sVt1_cwu9mui
p695
Vt3_3s5gwk
p696
sVt1_cwi6bx4
p697
Vt3_3qrlmj
p698
sVt1_cwphxrl
p699
Vt3_3rj3dr
p700
sVt1_cvvofzk
p701
Vt3_3o7s9v
p702
sVt1_cw56qlj
p703
Vt3_3pcwux
p704
sVt1_cvu1p2m
p705
Vt3_3o29f6
p706
sVt1_cwd3s32
p707
Vt3_3q8lad
p708
sVt1_cve4kdg
p709
Vt3_3mchaq
p710
sVt1_cw3qcbp
p711
Vt3_3p72xb
p712
sVt1_cvtd35y
p713
Vt3_3o1vh4
p714
sVt1_cweczml
p715
Vt3_3qdno6
p716
sVt1_cvsqjmn
p717
Vt3_3nvwx8
p718
sVt1_cw4hfoz
p719
Vt3_3p8rmk
p720
sVt1_cw0w62s
p721
Vt3_3ov1nv
p722
sVt1_cwug4ts
p723
Vt3_3s5ky4
p724
sVt1_cwenpi6
p725
Vt3_3qfe9u
p726
sVt1_cwg2z47
p727
Vt3_3qkvzh
p728
sVt1_cvtzwac
p729
Vt3_3o29f6
p730
sVt1_cwbol6r
p731
Vt3_3q3b83
p732
sVt1_cvj09m5
p733
Vt3_3mxh56
p734
sVt1_cvahfqe
p735
Vt3_3lyk7o
p736
sVt1_cvr9742
p737
Vt3_3nts3i
p738
sVt1_cw8uwnn
p739
Vt3_3pqomk
p740
sVt1_cvua5uk
p741
Vt3_3o5nu0
p742
sVt1_cw2hxoa
p743
Vt3_3p1ip9
p744
sVt1_cwpc48x
p745
Vt3_3rmcry
p746
sVt1_cwgswis
p747
Vt3_3qnpmp
p748
sVt1_cwx5adl
p749
Vt3_3sgued
p750
sVt1_cvr548m
p751
Vt3_3ntac6
p752
sVt1_cvnhr2q
p753
Vt3_3n9kzl
p754
sVt1_cwaty3e
p755
Vt3_3pzfwo
p756
sVt1_cw7mnzt
p757
Vt3_3plhq5
p758
sVt1_cwqffvu
p759
Vt3_3rqdl1
p760
sVt1_cvdz1be
p761
Vt3_3maj6b
p762
sVt1_cwu6xx7
p763
Vt3_3s3js3
p764
sVt1_cvw5pt9
p765
Vt3_3ocxaj
p766
sVt1_cvp9ajb
p767
Vt3_3nlxzo
p768
sVt1_cwvg1gm
p769
Vt3_3s540b
p770
sVt1_cvpzons
p771
Vt3_3nl2sq
p772
sVt1_cvydqym
p773
Vt3_3olzcy
p774
sVt1_cvkukut
p775
Vt3_3n4wy9
p776
sVt1_cwwtvu0
p777
Vt3_3sfvoq
p778
sVt1_cvpynv3
p779
Vt3_3normn
p780
sVt1_cwpcfu0
p781
Vt3_3rmcry
p782
sVt1_cvblkfz
p783
Vt3_3m2v3j
p784
sVt1_cwfbe5f
p785
Vt3_3qhtmg
p786
sVt1_cwatzln
p787
Vt3_3pzgmh
p788
sVt1_cwqj454
p789
Vt3_3rqxi6
p790
sVt1_cw4tvo9
p791
Vt3_3pb5ks
p792
sVt1_cvc6jec
p793
Vt3_3m5iql
p794
sVt1_cwqq14h
p795
Vt3_3rqxi6
p796
sVt1_cwng474
p797
Vt3_3rdnyj
p798
sVt1_cvs7fdu
p799
Vt3_3nxm7e
p800
sVt1_cwx8dv2
p801
Vt3_3sh3g8
p802
sVt1_cwtnig2
p803
Vt3_3s1otp
p804
sVt1_cwxlrw1
p805
Vt3_3sgued
p806
sVt1_cw5773e
p807
Vt3_3pcwux
p808
sVt1_cwa6rrs
p809
Vt3_3pwk13
p810
sVt1_cvsq5nr
p811
Vt3_3nxt82
p812
sVt1_cwieonu
p813
Vt3_3qu840
p814
sVt1_cvpjhu1
p815
Vt3_3nn3d0
p816
sVt1_cw19x1l
p817
Vt3_3owy3b
p818
sVt1_cvgfty5
p819
Vt3_3miuaq
p820
sVt1_cwvzqac
p821
Vt3_3sc6g0
p822
sVt1_cwoh5g4
p823
Vt3_3riscd
p824
sVt1_cw7d476
p825
Vt3_3plhq5
p826
sVt1_cvfhriq
p827
Vt3_3mjezn
p828
sVt1_cwhutmk
p829
Vt3_3qs02c
p830
sVt1_cwnayb2
p831
Vt3_3raiog
p832
sVt1_cwfz64k
p833
Vt3_3qk9x5
p834
sVt1_cwx5xwu
p835
Vt3_3sgued
p836
sVt1_cws7sxz
p837
Vt3_3rxq3n
p838
sVt1_cwmcytl
p839
Vt3_3ra91y
p840
sVt1_cwvgjet
p841
Vt3_3safrr
p842
sVt1_cw5vg4t
p843
Vt3_3pfgvy
p844
sVt1_cw6kve6
p845
Vt3_3piifx
p846
sVt1_cwfscmc
p847
Vt3_3qi0g9
p848
sVt1_cwiuve4
p849
Vt3_3qw0ft
p850
sVt1_cwd5jta
p851
Vt3_3q8vdc
p852
sVt1_cwqz84k
p853
Vt3_3rskrt
p854
sVt1_cwa8qv4
p855
Vt3_3pwxrg
p856
sVt1_cwxpgtt
p857
Vt3_3siz6b
p858
sVt1_cvk3u75
p859
Vt3_3n1sci
p860
sVt1_cwba46s
p861
Vt3_3q0sna
p862
sVt1_cwxpppa
p863
Vt3_3siz6b
p864
sVt1_cw575u7
p865
Vt3_3pcwux
p866
sVt1_cvq6umd
p867
Vt3_3myz7j
p868
sVt1_cwiwx7m
p869
Vt3_3qvldr
p870
sVt1_cvve6rh
p871
Vt3_3oa5vp
p872
sVt1_cw9oveu
p873
Vt3_3puw1w
p874
sVt1_cwnhnp2
p875
Vt3_3rdh5m
p876
sVt1_cvju5r1
p877
Vt3_3n0tqw
p878
sVt1_cvl9qhx
p879
Vt3_3n42fg
p880
sVt1_cwxg2kc
p881
Vt3_3shyb5
p882
sVt1_cvfcbgi
p883
Vt3_3mhbgl
p884
sVt1_cwksq33
p885
Vt3_3r3i90
p886
sVt1_cwwuj0e
p887
Vt3_3sfvoq
p888
sVt1_cw8iijf
p889
Vt3_3pq2hi
p890
sVt1_cw6p7hq
p891
Vt3_3phnek
p892
sVt1_cw81ue1
p893
Vt3_3pobu0
p894
sVt1_cw8srt9
p895
Vt3_3pozl2
p896
sVt1_cwbocss
p897
Vt3_3q2zo7
p898
sVt1_cvbltuq
p899
Vt3_3lxxq7
p900
sVt1_cwlazsx
p901
Vt3_3r4ejr
p902
sVt1_cvtswhx
p903
Vt3_3nydcr
p904
sVt1_cvc04bn
p905
Vt3_3m4tq2
p906
sVt1_cw6yfuz
p907
Vt3_3pk0ve
p908
sVt1_cwew270
p909
Vt3_3q764r
p910
sVt1_cvjp90y
p911
Vt3_3mzsmg
p912
sVt1_cvb5f0s
p913
Vt3_3m1a6p
p914
sVt1_cwh99sn
p915
Vt3_3qpj9g
p916
sVt1_cw4bi97
p917
Vt3_3p9dzc
p918
sVt1_cw52wtt
p919
Vt3_3pbdgi
p920
sVt1_cvuws0j
p921
Vt3_3o7s9v
p922
sVt1_cwt4278
p923
Vt3_3rzuci
p924
sVt1_cw9o1dm
p925
Vt3_3puw1w
p926
sVt1_cvntkja
p927
Vt3_3ngf1m
p928
sVt1_cvjt31j
p929
Vt3_3n09l8
p930
sVt1_cw5288j
p931
Vt3_3p8707
p932
sVt1_cwouf55
p933
Vt3_3rk25j
p934
sVt1_cwn6aeb
p935
Vt3_3rch5i
p936
sVt1_cw3dyms
p937
Vt3_3p5dx4
p938
sVt1_cvslght
p939
Vt3_3nydcr
p940
sVt1_cwad8e7
p941
Vt3_3px9j0
p942
sVt1_cwm51zp
p943
Vt3_3r9m5z
p944
sVt1_cw83lz3
p945
Vt3_3pobu0
p946
sVt1_cw2e66q
p947
Vt3_3p13df
p948
sVt1_cw5k8p2
p949
Vt3_3pe7mr
p950
sVt1_cwbfpce
p951
Vt3_3q27mk
p952
sVt1_cve2dh5
p953
Vt3_3mczxh
p954
sVt1_cw4pb9c
p955
Vt3_3pankf
p956
sVt1_cwfl6w4
p957
Vt3_3qh5fw
p958
sVt1_cvjf7y0
p959
Vt3_3mzc6u
p960
sVt1_cwdd5id
p961
Vt3_3q9vsk
p962
sVt1_cvojp80
p963
Vt3_3ninvq
p964
sVt1_cw6c0qy
p965
Vt3_3pejmt
p966
sVt1_cw3skx2
p967
Vt3_3p78fo
p968
sVt1_cwd0l7g
p969
Vt3_3q7t2r
p970
sVt1_cvixa9o
p971
Vt3_3mx5p0
p972
sVt1_cwo2ye6
p973
Vt3_3rhgor
p974
sVt1_cvwka4i
p975
Vt3_3odxnj
p976
sVt1_cvrmhqj
p977
Vt3_3nuugi
p978
sVt1_cwx9sr3
p979
Vt3_3sh5us
p980
sVt1_cw1wel9
p981
Vt3_3ox8w2
p982
sVt1_cvrq53g
p983
Vt3_3nvw5l
p984
sVt1_cw2vgjc
p985
Vt3_3p3ml4
p986
sVt1_cwrvmjf
p987
Vt3_3rw9cg
p988
sVt1_cw862ep
p989
Vt3_3pobu0
p990
sVt1_cvlsn0f
p991
Vt3_3n8jvc
p992
sVt1_cvo67rl
p993
Vt3_3ndyub
p994
sVt1_cwoacc0
p995
Vt3_3ri5n8
p996
sVt1_cwvqrca
p997
Vt3_3sbh83
p998
sVt1_cvs2va2
p999
Vt3_3nwjkx
p1000
sVt1_cwhjxx4
p1001
Vt3_3qqufw
p1002
sVt1_cvl0ob1
p1003
Vt3_3n4vqm
p1004
sVt1_cwnb98d
p1005
Vt3_3rdnyj
p1006
sVt1_cwrvx0f
p1007
Vt3_3rldx2
p1008
sVt1_cwbg7nu
p1009
Vt3_3q1d6r
p1010
sVt1_cvye2mh
p1011
Vt3_3olzcy
p1012
sVt1_cwogp3j
p1013
Vt3_3ribmq
p1014
sVt1_cw5ph5p
p1015
Vt3_3pejmt
p1016
sVt1_cvidrvf
p1017
Vt3_3muwy8
p1018
sVt1_cvoek70
p1019
Vt3_3nec0y
p1020
sVt1_cw3c2bs
p1021
Vt3_3p5fn7
p1022
sVt1_cvyun5e
p1023
Vt3_3olwo4
p1024
sVt1_cvk3j0h
p1025
Vt3_3n1o6v
p1026
sVt1_cvxjrej
p1027
Vt3_3oio6a
p1028
sVt1_cwdqoe0
p1029
Vt3_3q9vsk
p1030
sVt1_cwvp52j
p1031
Vt3_3saobx
p1032
sVt1_cvzpcpz
p1033
Vt3_3oqurc
p1034
sVt1_cw76eap
p1035
Vt3_3pkpz7
p1036
sVt1_cw9pqqr
p1037
Vt3_3pv37e
p1038
sVt1_cwf0e2f
p1039
Vt3_3qgon1
p1040
sVt1_cvco8h4
p1041
Vt3_3m58tk
p1042
sVt1_cw58iax
p1043
Vt3_3pd06k
p1044
sVt1_cw09bzx
p1045
Vt3_3ospra
p1046
sVt1_cwv6rj8
p1047
Vt3_3s7hmb
p1048
sVt1_cvqwwow
p1049
Vt3_3nslg5
p1050
sVt1_cwu7nvm
p1051
Vt3_3s4ck0
p1052
sVt1_cvj0a46
p1053
Vt3_3mxh56
p1054
sVt1_cw6q9w2
p1055
Vt3_3pj3br
p1056
sVt1_cvhc3rl
p1057
Vt3_3mqreb
p1058
sVt1_cvckegi
p1059
Vt3_3m79kq
p1060
sVt1_cwg41fr
p1061
Vt3_3ql1wn
p1062
sVt1_cvmuja3
p1063
Vt3_3ncof7
p1064
sVt1_cvftd7m
p1065
Vt3_3mkscc
p1066
sVt1_cw3gcja
p1067
Vt3_3p5p6g
p1068
sVt1_cw5z8kk
p1069
Vt3_3pftlb
p1070
sVt1_cvq15gk
p1071
Vt3_3nmqan
p1072
sVt1_cwctl85
p1073
Vt3_3q7h23
p1074
sVt1_cwcxcyw
p1075
Vt3_3q7t2r
p1076
sVt1_cw2iiqk
p1077
Vt3_3p1ip9
p1078
sVt1_cvnsuv8
p1079
Vt3_3ngf1m
p1080
sVt1_cvnw0vv
p1081
Vt3_3ngf1m
p1082
sVt1_cwq7aj5
p1083
Vt3_3rpjig
p1084
sVt1_cvm7s05
p1085
Vt3_3n9kzl
p1086
sVt1_cv8heen
p1087
Vt3_3lodwj
p1088
sVt1_cw5ghcu
p1089
Vt3_3pb83g
p1090
sVt1_cwl74ny
p1091
Vt3_3r5w5s
p1092
sVt1_cwpw5h3
p1093
Vt3_3roewy
p1094
sVt1_cvwuwfc
p1095
Vt3_3ofn95
p1096
sVt1_cwcty8f
p1097
Vt3_3q7t2r
p1098
sVt1_cvjk8oj
p1099
Vt3_3mxh56
p1100
sVt1_cwb5lkh
p1101
Vt3_3pzfwo
p1102
sVt1_cw74k38
p1103
Vt3_3pirmx
p1104
sVt1_cwogf73
p1105
Vt3_3riovl
p1106
sVt1_cvftaj2
p1107
Vt3_3mkscc
p1108
sVt1_cwasojq
p1109
Vt3_3pzgmh
p1110
sVt1_cwhmnv0
p1111
Vt3_3qr8e3
p1112
sVt1_cvzb0k8
p1113
Vt3_3opjgt
p1114
sVt1_cvh4wzp
p1115
Vt3_3mpvjg
p1116
sVt1_cwd3zl3
p1117
Vt3_3q8lad
p1118
sVt1_cwn21ci
p1119
Vt3_3rdgdu
p1120
sVt1_cvcemy1
p1121
Vt3_3m6gq5
p1122
sVt1_cwm6cv8
p1123
Vt3_3r9m5z
p1124
sVt1_cwv5bds
p1125
Vt3_3s8ob6
p1126
sVt1_cvzn9m5
p1127
Vt3_3oq3vi
p1128
sVt1_cwvkd6l
p1129
Vt3_3s9n5v
p1130
sVt1_cw3muny
p1131
Vt3_3p6oyj
p1132
sVt1_cwiy4gn
p1133
Vt3_3qrlmj
p1134
sVt1_cwbk7o2
p1135
Vt3_3pzfwo
p1136
sVt1_cvtvygg
p1137
Vt3_3o48q6
p1138
sVt1_cw6io3j
p1139
Vt3_3pi9g1
p1140
sVt1_cwpc5np
p1141
Vt3_3rmcry
p1142
sVt1_cvs912q
p1143
Vt3_3nxt82
p1144
sVt1_cwn0obu
p1145
Vt3_3rd4r3
p1146
sVt1_cvl8eaj
p1147
Vt3_3n63uc
p1148
sVt1_cvvqfrb
p1149
Vt3_3o7s9v
p1150
sVt1_cvtutr9
p1151
Vt3_3o4807
p1152
sVt1_cvexylc
p1153
Vt3_3mhcw2
p1154
sVt1_cw5l21j
p1155
Vt3_3pe7mr
p1156
sVt1_cwl9ccz
p1157
Vt3_3r4ejr
p1158
sVt1_cvj09qd
p1159
Vt3_3mxh56
p1160
sVt1_cwvyi5c
p1161
Vt3_3sc6g0
p1162
sVt1_cwpoawl
p1163
Vt3_3rmsnz
p1164
sVt1_cvpl33x
p1165
Vt3_3nlxh5
p1166
sVt1_cweagdt
p1167
Vt3_3qdfmy
p1168
sVt1_cvxf8h3
p1169
Vt3_3oi2mh
p1170
sVt1_cw60ikj
p1171
Vt3_3pftlb
p1172
sVt1_cvhovbw
p1173
Vt3_3mrizv
p1174
sVt1_cvdieid
p1175
Vt3_3maj6b
p1176
sVt1_cvk46c8
p1177
Vt3_3n1vj9
p1178
sVt1_cwg4kvr
p1179
Vt3_3qk9ss
p1180
sVt1_cvwiknd
p1181
Vt3_3oe9qm
p1182
sVt1_cw7whtm
p1183
Vt3_3pnx6n
p1184
sVt1_cw7bx6v
p1185
Vt3_3plgbs
p1186
sVt1_cwc9i1v
p1187
Vt3_3q5lw4
p1188
sVt1_cvfebel
p1189
Vt3_3mhgci
p1190
sVt1_cvdbemc
p1191
Vt3_3m8z61
p1192
sVt1_cwbe87e
p1193
Vt3_3q0sna
p1194
sVt1_cw7ffe5
p1195
Vt3_3pje0g
p1196
sVt1_cwdefra
p1197
Vt3_3q9vsk
p1198
sVt1_cvr1480
p1199
Vt3_3nt0d9
p1200
sVt1_cvbrzyh
p1201
Vt3_3lxmpn
p1202
sVt1_cvco767
p1203
Vt3_3m7hyk
p1204
sVt1_cvypmvu
p1205
Vt3_3omzv1
p1206
sVt1_cwvkqh7
p1207
Vt3_3savs5
p1208
sVt1_cwofmz8
p1209
Vt3_3ribmq
p1210
sVt1_cvgf2ky
p1211
Vt3_3mmj2v
p1212
sVt1_cvp7rv4
p1213
Vt3_3nl2sq
p1214
sVt1_cwuxy0b
p1215
Vt3_3s7hmb
p1216
sVt1_cvpbmir
p1217
Vt3_3nlxzo
p1218
sVt1_cwvuai0
p1219
Vt3_3sbrro
p1220
sVt1_cwcup7y
p1221
Vt3_3q7t2r
p1222
sVt1_cvt3ktg
p1223
Vt3_3o15uj
p1224
sVt1_cvoopqv
p1225
Vt3_3njdqt
p1226
sVt1_cwogdu9
p1227
Vt3_3riscd
p1228
sVt1_cwcqhl1
p1229
Vt3_3q7h23
p1230
sVt1_cwu7juv
p1231
Vt3_3s54y1
p1232
sVt1_cvpi8ky
p1233
Vt3_3nlc03
p1234
sVt1_cw0cbfd
p1235
Vt3_3oopr4
p1236
sVt1_cvdseyj
p1237
Vt3_3mc6y0
p1238
sVt1_cwobj2b
p1239
Vt3_3ri5n8
p1240
sVt1_cwq2p8m
p1241
Vt3_3rn702
p1242
sVt1_cwv2udf
p1243
Vt3_3s82s5
p1244
sVt1_cvizlli
p1245
Vt3_3mx2w6
p1246
sVt1_cw2xbea
p1247
Vt3_3p3ohn
p1248
sVt1_cw6c3ou
p1249
Vt3_3phfaw
p1250
sVt1_cvj4d77
p1251
Vt3_3mxz7u
p1252
sVt1_cw6ns2f
p1253
Vt3_3phfaw
p1254
sVt1_cvq4il2
p1255
Vt3_3normn
p1256
sVt1_cvffqwc
p1257
Vt3_3mjaq5
p1258
sVt1_cvm73df
p1259
Vt3_3n9kzl
p1260
sVt1_cwb6103
p1261
Vt3_3q0sna
p1262
sVt1_cvge6qj
p1263
Vt3_3mn2r2
p1264
sVt1_cvgkl40
p1265
Vt3_3mile6
p1266
sVt1_cwgbxu5
p1267
Vt3_3qk9ss
p1268
sVt1_cvideyb
p1269
Vt3_3muwy8
p1270
sVt1_cwe1cey
p1271
Vt3_3qc46o
p1272
sVt1_cvrc2uy
p1273
Vt3_3nubdt
p1274
sVt1_cvqcu9p
p1275
Vt3_3nqa1z
p1276
sVt1_cwg4wf8
p1277
Vt3_3qkuos
p1278
sVt1_cw1arev
p1279
Vt3_3owy3b
p1280
sVt1_cwgyc9l
p1281
Vt3_3qnx32
p1282
sVt1_cwctklj
p1283
Vt3_3q7t2r
p1284
sVt1_cvojw4f
p1285
Vt3_3nhy1a
p1286
sVt1_cw1cj6p
p1287
Vt3_3oxitc
p1288
sVt1_cw936gz
p1289
Vt3_3psmsp
p1290
sVt1_cvb415u
p1291
Vt3_3m1a6p
p1292
sVt1_cwpxafh
p1293
Vt3_3rl8w6
p1294
sVt1_cw9uml3
p1295
Vt3_3pvgcb
p1296
sVt1_cvdj4rm
p1297
Vt3_3mar1h
p1298
sVt1_cvkfcxx
p1299
Vt3_3n3bql
p1300
sVt1_cw6lvlp
p1301
Vt3_3pinwx
p1302
sVt1_cwa1pcx
p1303
Vt3_3pw559
p1304
sVt1_cwmz6d1
p1305
Vt3_3rd4r3
p1306
sVt1_cvyebwj
p1307
Vt3_3olwo4
p1308
sVt1_cwn54nu
p1309
Vt3_3rdnyj
p1310
sVt1_cwn72nh
p1311
Vt3_3rdnyj
p1312
sVt1_cwxu1ia
p1313
Vt3_3sjot5
p1314
sVt1_cvtdw3p
p1315
Vt3_3o1t8i
p1316
sVt1_cvrhbq4
p1317
Vt3_3nu1km
p1318
sVt1_cwdol07
p1319
Vt3_3qb3vf
p1320
sVt1_cwlwvtj
p1321
Vt3_3r6s54
p1322
sVt1_cvtc17v
p1323
Vt3_3o1vh4
p1324
sVt1_cw5jvx0
p1325
Vt3_3pe7mr
p1326
sVt1_cvkvl5u
p1327
Vt3_3n4tl7
p1328
sVt1_cwola39
p1329
Vt3_3rj3dr
p1330
sVt1_cvhoizc
p1331
Vt3_3ms89s
p1332
sVt1_cvcjx22
p1333
Vt3_3m6xvn
p1334
sVt1_cw9q0rz
p1335
Vt3_3pv37e
p1336
sVt1_cwmje6x
p1337
Vt3_3rb6rb
p1338
sVt1_cvqu4lk
p1339
Vt3_3nrlu3
p1340
sVt1_cvp63zg
p1341
Vt3_3ngf1m
p1342
sVt1_cw7tkw4
p1343
Vt3_3pnp0y
p1344
sVt1_cvf33an
p1345
Vt3_3mhbgl
p1346
sVt1_cwoxkqt
p1347
Vt3_3rkksg
p1348
sVt1_cvtbg2i
p1349
Vt3_3o1t8i
p1350
sVt1_cw09751
p1351
Vt3_3osr51
p1352
sVt1_cvd2m7f
p1353
Vt3_3m8z61
p1354
sVt1_cw3zju6
p1355
Vt3_3p8707
p1356
sVt1_cvqwd9x
p1357
Vt3_3nsaar
p1358
sVt1_cwowv60
p1359
Vt3_3rknzd
p1360
sVt1_cwjrf1z
p1361
Vt3_3qyr5w
p1362
sVt1_cvsffh5
p1363
Vt3_3nysgi
p1364
sVt1_cwpcavo
p1365
Vt3_3rm4y6
p1366
sVt1_cvne8l8
p1367
Vt3_3neu73
p1368
sVt1_cwodsyj
p1369
Vt3_3ri5n8
p1370
sVt1_cvydffw
p1371
Vt3_3oltrm
p1372
sVt1_cw6i2ct
p1373
Vt3_3pi9g1
p1374
sVt1_cwu05gr
p1375
Vt3_3s4eb6
p1376
sVt1_cvjdbh7
p1377
Vt3_3myrjr
p1378
sVt1_cwbwzlo
p1379
Vt3_3q0k86
p1380
sVt1_cwbley3
p1381
Vt3_3q27mk
p1382
sVt1_cwaki7q
p1383
Vt3_3pychg
p1384
sVt1_cvsnay1
p1385
Vt3_3nzj0y
p1386
sVt1_cw3geud
p1387
Vt3_3p5p6g
p1388
sVt1_cvdp63z
p1389
Vt3_3mbq2j
p1390
sVt1_cwbhdxp
p1391
Vt3_3q27mk
p1392
sVt1_cw6z7j0
p1393
Vt3_3pk0ve
p1394
sVt1_cvbueke
p1395
Vt3_3m3c0z
p1396
sVt1_cwn8die
p1397
Vt3_3rdw96
p1398
sVt1_cvawost
p1399
Vt3_3lyk7o
p1400
sVt1_cwo0wh8
p1401
Vt3_3rh99n
p1402
sVt1_cw9rq5q
p1403
Vt3_3pu8tg
p1404
sVt1_cvmizi6
p1405
Vt3_3nb2sn
p1406
sVt1_cwi070r
p1407
Vt3_3qq33x
p1408
sVt1_cwkuyfy
p1409
Vt3_3r3i90
p1410
sVt1_cvfgz7o
p1411
Vt3_3migev
p1412
sVt1_cvqgkvz
p1413
Vt3_3nqqrd
p1414
sVt1_cwobzgp
p1415
Vt3_3ribmq
p1416
sVt1_cwc7ed3
p1417
Vt3_3q3sie
p1418
sVt1_cwg65mg
p1419
Vt3_3qkvzh
p1420
sVt1_cwpidwg
p1421
Vt3_3rn702
p1422
sVt1_cwcrjf4
p1423
Vt3_3q7k3q
p1424
sVt1_cwtscvd
p1425
Vt3_3s2dfy
p1426
sVt1_cw39rq0
p1427
Vt3_3oz6yk
p1428
sVt1_cwrjrj3
p1429
Vt3_3rupsa
p1430
sVt1_cwghfca
p1431
Vt3_3qdno6
p1432
sVt1_cwpveg5
p1433
Vt3_3roewy
p1434
sVt1_cvkf46r
p1435
Vt3_3n3bql
p1436
sVt1_cw7svp5
p1437
Vt3_3pmn8i
p1438
sVt1_cvckjmo
p1439
Vt3_3m6xvn
p1440
sVt1_cwukb89
p1441
Vt3_3s5ky4
p1442
sVt1_cwe68vp
p1443
Vt3_3qd8ll
p1444
sVt1_cvulut9
p1445
Vt3_3nwxfp
p1446
sVt1_cvvtql7
p1447
Vt3_3obgor
p1448
sVt1_cwn1tgd
p1449
Vt3_3rdgdu
p1450
sVt1_cvebe3f
p1451
Vt3_3medsy
p1452
sVt1_cwrap6t
p1453
Vt3_3rtl4t
p1454
sVt1_cvkxqj2
p1455
Vt3_3n574y
p1456
sVt1_cwajg8z
p1457
Vt3_3pychg
p1458
sVt1_cw2gpxu
p1459
Vt3_3p1ip9
p1460
sVt1_cvs9u1s
p1461
Vt3_3nxup3
p1462
sVt1_cw4tz63
p1463
Vt3_3pb5ks
p1464
sVt1_cwvqq80
p1465
Vt3_3saobx
p1466
sVt1_cvlwxft
p1467
Vt3_3n8bjt
p1468
sVt1_cwbi2as
p1469
Vt3_3q279m
p1470
sVt1_cwx4tua
p1471
Vt3_3sexfu
p1472
sVt1_cvjm19o
p1473
Vt3_3mxv7j
p1474
sVt1_cwkc2sa
p1475
Vt3_3qw775
p1476
sVt1_cwxb0yx
p1477
Vt3_3sh3g8
p1478
sVt1_cwn63dk
p1479
Vt3_3rd4r3
p1480
sVt1_cwp68wv
p1481
Vt3_3rlel3
p1482
sVt1_cwe99se
p1483
Vt3_3qd2tm
p1484
sVt1_cwoevb9
p1485
Vt3_3riscd
p1486
sVt1_cw2uk08
p1487
Vt3_3p3ml4
p1488
sVt1_cw4xg5g
p1489
Vt3_3pbgvz
p1490
sVt1_cw13x7o
p1491
Vt3_3ow4nl
p1492
sVt1_cvwd0bq
p1493
Vt3_3odxnj
p1494
sVt1_cvje3qt
p1495
Vt3_3mz6pm
p1496
sVt1_cvoi9xa
p1497
Vt3_3ni2rm
p1498
sVt1_cvmj37u
p1499
Vt3_3n9kzl
p1500
sVt1_cwk3s64
p1501
Vt3_3r0wkv
p1502
sVt1_cvxcql6
p1503
Vt3_3ohueb
p1504
sVt1_cvu1yhm
p1505
Vt3_3o2lef
p1506
sVt1_cw6swq6
p1507
Vt3_3pj95y
p1508
sVt1_cw411mq
p1509
Vt3_3p8707
p1510
sVt1_cvr6rxd
p1511
Vt3_3nts3i
p1512
sVt1_cvz5vy4
p1513
Vt3_3oopm5
p1514
sVt1_cvffmp2
p1515
Vt3_3mjaet
p1516
sVt1_cwpgls9
p1517
Vt3_3rm4y6
p1518
sVt1_cwrke2a
p1519
Vt3_3rupsa
p1520
sVt1_cvzgu5v
p1521
Vt3_3oq6yi
p1522
sVt1_cwu8le7
p1523
Vt3_3s5gwk
p1524
sVt1_cw80o29
p1525
Vt3_3po62y
p1526
sVt1_cw1yk8v
p1527
Vt3_3p04jv
p1528
sVt1_cvdq20e
p1529
Vt3_3mbq2j
p1530
sVt1_cwlfafk
p1531
Vt3_3r6s54
p1532
sVt1_cw0g7ol
p1533
Vt3_3osuon
p1534
sVt1_cvzjjvz
p1535
Vt3_3opzwb
p1536
sVt1_cwngr5d
p1537
Vt3_3rdnyj
p1538
sVt1_cwm8kvp
p1539
Vt3_3r8xsd
p1540
sVt1_cvmbgjp
p1541
Vt3_3na725
p1542
sVt1_cwnwtat
p1543
Vt3_3rgd2b
p1544
sVt1_cvzicyg
p1545
Vt3_3oq17f
p1546
sVt1_cvn9o63
p1547
Vt3_3ncof7
p1548
sVt1_cwvmeiz
p1549
Vt3_3sayeh
p1550
sVt1_cvtpsfg
p1551
Vt3_3nuy9j
p1552
sVt1_cvrvxz7
p1553
Vt3_3nvwx8
p1554
sVt1_cvhd6bb
p1555
Vt3_3mr2ir
p1556
sVt1_cvjtfiz
p1557
Vt3_3n0tqw
p1558
sVt1_cvkdzgs
p1559
Vt3_3n22n6
p1560
sVt1_cvys52v
p1561
Vt3_3omzv1
p1562
sVt1_cvbbfe0
p1563
Vt3_3m2auo
p1564
sVt1_cwj79cp
p1565
Vt3_3qwmq1
p1566
sVt1_cwfdclt
p1567
Vt3_3qi0g9
p1568
sVt1_cvn28gq
p1569
Vt3_3ncxfp
p1570
sVt1_cwgrna6
p1571
Vt3_3qn3kr
p1572
sVt1_cvntgto
p1573
Vt3_3ngf1m
p1574
sVt1_cvjbwn8
p1575
Vt3_3mynof
p1576
sVt1_cw974uj
p1577
Vt3_3ps89t
p1578
sVt1_cwstdp5
p1579
Vt3_3rzuci
p1580
sVt1_cvc45t1
p1581
Vt3_3m3aj6
p1582
sVt1_cw2zh2c
p1583
Vt3_3p3mnx
p1584
sVt1_cvuf5ai
p1585
Vt3_3o616z
p1586
sVt1_cw2ttcw
p1587
Vt3_3p2bm4
p1588
sVt1_cvdj7ir
p1589
Vt3_3mb0rp
p1590
sVt1_cw3ca3j
p1591
Vt3_3p5p6g
p1592
sVt1_cve4tqp
p1593
Vt3_3mdfva
p1594
sVt1_cw0k5gk
p1595
Vt3_3osr51
p1596
sVt1_cw1vdwh
p1597
Vt3_3ozoot
p1598
sVt1_cved584
p1599
Vt3_3mej8r
p1600
sVt1_cwjq88u
p1601
Vt3_3qzxym
p1602
sVt1_cw43p25
p1603
Vt3_3p4u7a
p1604
sVt1_cw5pu4r
p1605
Vt3_3pex0m
p1606
sVt1_cvlvrd3
p1607
Vt3_3n4ctq
p1608
sVt1_cwcepi2
p1609
Vt3_3q4xnk
p1610
sVt1_cvm8ufw
p1611
Vt3_3n9kzl
p1612
sVt1_cwvude5
p1613
Vt3_3sayeh
p1614
sVt1_cvqbzvp
p1615
Vt3_3npgpc
p1616
sVt1_cwbjqou
p1617
Vt3_3q0sna
p1618
sVt1_cw9tz6j
p1619
Vt3_3pvgcb
p1620
sVt1_cwecayf
p1621
Vt3_3qdfmy
p1622
sVt1_cvrli6w
p1623
Vt3_3nslg5
p1624
sVt1_cw0xsa5
p1625
Vt3_3ovwnj
p1626
sVt1_cvt3758
p1627
Vt3_3o15uj
p1628
sVt1_cwmu7sl
p1629
Vt3_3rch5i
p1630
sVt1_cvu41fr
p1631
Vt3_3o4807
p1632
sVt1_cvfj980
p1633
Vt3_3mbmyw
p1634
sVt1_cw7k49a
p1635
Vt3_3pmn8i
p1636
sVt1_cwvnpxe
p1637
Vt3_3savs5
p1638
sVt1_cvcoli6
p1639
Vt3_3m6xvn
p1640
sVt1_cwpliz0
p1641
Vt3_3rm4y6
p1642
sVt1_cw9qzpj
p1643
Vt3_3puvdu
p1644
sVt1_cw42h9b
p1645
Vt3_3p8707
p1646
sVt1_cwg6bm6
p1647
Vt3_3qkuos
p1648
sVt1_cvvt3t7
p1649
Vt3_3obgor
p1650
sVt1_cvzbusj
p1651
Vt3_3oopr4
p1652
sVt1_cwhl5kn
p1653
Vt3_3qq7mu
p1654
sVt1_cw04r1v
p1655
Vt3_3orxxl
p1656
sVt1_cve08e9
p1657
Vt3_3mcw72
p1658
sVt1_cvg4p5z
p1659
Vt3_3mm22v
p1660
sVt1_cvwfzrg
p1661
Vt3_3odxnj
p1662
sVt1_cvkwsq4
p1663
Vt3_3n4kym
p1664
sVt1_cvrc3q2
p1665
Vt3_3nuezh
p1666
sVt1_cvinx6t
p1667
Vt3_3mv9af
p1668
sVt1_cvxnsqr
p1669
Vt3_3oho31
p1670
sVt1_cw2j6m0
p1671
Vt3_3p1xpx
p1672
sVt1_cwn95qu
p1673
Vt3_3rdvfa
p1674
sVt1_cvjxzcq
p1675
Vt3_3n130x
p1676
sVt1_cwrlruc
p1677
Vt3_3rumyq
p1678
sVt1_cvwa8ds
p1679
Vt3_3odov7
p1680
sVt1_cwp3ouc
p1681
Vt3_3rl8w6
p1682
sVt1_cw4izxd
p1683
Vt3_3p9luh
p1684
sVt1_cvtf31b
p1685
Vt3_3o29f6
p1686
sVt1_cwvpzf2
p1687
Vt3_3sbdk1
p1688
sVt1_cwkg0w6
p1689
Vt3_3r0wkv
p1690
sVt1_cvr68wz
p1691
Vt3_3nsaar
p1692
sVt1_cws2fa0
p1693
Vt3_3rw9cg
p1694
sVt1_cw6mw3n
p1695
Vt3_3pinwx
p1696
sVt1_cvmdbk5
p1697
Vt3_3na725
p1698
sVt1_cvn2z8v
p1699
Vt3_3ndm8u
p1700
sVt1_cw5oyjk
p1701
Vt3_3pe78y
p1702
sVt1_cvxpol1
p1703
Vt3_3oj5sc
p1704
sVt1_cvcpdrv
p1705
Vt3_3m7ozl
p1706
sVt1_cw48zam
p1707
Vt3_3p6cld
p1708
sVt1_cvxce96
p1709
Vt3_3oh55e
p1710
sVt1_cwiolhb
p1711
Vt3_3qvcej
p1712
sVt1_cwcc15i
p1713
Vt3_3q5vdm
p1714
sVt1_cvjy23k
p1715
Vt3_3n19vw
p1716
sVt1_cvs2r0c
p1717
Vt3_3nvawr
p1718
sVt1_cwolqim
p1719
Vt3_3ri5n8
p1720
sVt1_cwm9tm8
p1721
Vt3_3ra91y
p1722
sVt1_cwdr8hw
p1723
Vt3_3q9vsk
p1724
sVt1_cwpvlhv
p1725
Vt3_3roewy
p1726
sVt1_cvvekk1
p1727
Vt3_3oa5vp
p1728
sVt1_cwu9nc7
p1729
Vt3_3s5ky4
p1730
sVt1_cwbojb3
p1731
Vt3_3q3b83
p1732
sVt1_cwv0w0l
p1733
Vt3_3s8ac9
p1734
sVt1_cww8o9q
p1735
Vt3_3s82s5
p1736
sVt1_cwabjsi
p1737
Vt3_3px9j0
p1738
sVt1_cwg5qmz
p1739
Vt3_3qk9ss
p1740
sVt1_cwfhwkf
p1741
Vt3_3qhhdp
p1742
sVt1_cwn6js4
p1743
Vt3_3rd4r3
p1744
sVt1_cwbd0i9
p1745
Vt3_3q1d6r
p1746
sVt1_cvm9e1j
p1747
Vt3_3n9kzl
p1748
sVt1_cwpvn2h
p1749
Vt3_3roewy
p1750
sVt1_cvjvcmp
p1751
Vt3_3mx9ku
p1752
sVt1_cwidco6
p1753
Vt3_3qu9ts
p1754
sVt1_cvznpr2
p1755
Vt3_3or2v9
p1756
sVt1_cw6pcv5
p1757
Vt3_3pi9g1
p1758
sVt1_cw9u7pq
p1759
Vt3_3p4u7a
p1760
sVt1_cvf15lt
p1761
Vt3_3mhgci
p1762
sVt1_cvrply4
p1763
Vt3_3nvro1
p1764
sVt1_cvr59p4
p1765
Vt3_3ntjwd
p1766
sVt1_cvduxh6
p1767
Vt3_3mchaq
p1768
sVt1_cvjbf5f
p1769
Vt3_3mynof
p1770
sVt1_cvc4xnx
p1771
Vt3_3m54q5
p1772
sVt1_cwpckjn
p1773
Vt3_3rmcry
p1774
sVt1_cwvnyd9
p1775
Vt3_3s9n5g
p1776
sVt1_cwoocj1
p1777
Vt3_3ri5n8
p1778
sVt1_cw1dp5z
p1779
Vt3_3ox8w2
p1780
sVt1_cvnvocl
p1781
Vt3_3ngf1m
p1782
sVt1_cw40b54
p1783
Vt3_3p8707
p1784
sVt1_cvixuz5
p1785
Vt3_3mx9ku
p1786
sVt1_cw12mzf
p1787
Vt3_3ow4nl
p1788
sVt1_cw6qrwe
p1789
Vt3_3pj3br
p1790
sVt1_cvzhiki
p1791
Vt3_3opzwb
p1792
sVt1_cwpcpwv
p1793
Vt3_3rmcry
p1794
sVt1_cvc7g78
p1795
Vt3_3m54q5
p1796
s(dp1797
g232
(lp1798
g231
asg492
(lp1799
g491
ag673
ag1223
ag1627
asg900
(lp1800
g899
asg430
(lp1801
g429
ag501
asg114
(lp1802
g113
asg1556
(lp1803
g1555
asg960
(lp1804
g959
asg700
(lp1805
g699
ag1329
asg490
(lp1806
g489
ag755
ag1101
ag1135
asg90
(lp1807
g89
asg786
(lp1808
g785
asg1174
(lp1809
g1173
asg98
(lp1810
g97
asg432
(lp1811
g431
asg1546
(lp1812
g1545
asg284
(lp1813
g283
asg966
(lp1814
g965
ag1015
asg1444
(lp1815
g1443
asg40
(lp1816
g39
asg346
(lp1817
g345
ag1315
ag1349
asg648
(lp1818
g647
ag1231
asg420
(lp1819
g419
asg1242
(lp1820
g1241
ag1421
asg576
(lp1821
g575
asg222
(lp1822
g221
ag571
ag1709
asg88
(lp1823
g87
asg60
(lp1824
g59
asg506
(lp1825
g505
ag577
asg1398
(lp1826
g1397
asg762
(lp1827
g761
ag1175
asg1504
(lp1828
g1503
asg1322
(lp1829
g1321
ag1531
asg1046
(lp1830
g1045
asg352
(lp1831
g351
ag721
asg328
(lp1832
g327
ag407
ag515
ag745
ag781
ag1141
ag1773
ag1793
asg360
(lp1833
g359
asg1468
(lp1834
g1467
asg386
(lp1835
g385
asg768
(lp1836
g767
ag1217
asg1244
(lp1837
g1243
ag1735
asg646
(lp1838
g645
asg696
(lp1839
g695
ag1523
asg76
(lp1840
g75
ag249
ag765
asg1192
(lp1841
g1191
ag1353
asg712
(lp1842
g711
asg96
(lp1843
g95
ag1423
asg162
(lp1844
g161
asg20
(lp1845
g19
asg1018
(lp1846
g1017
ag1269
asg1708
(lp1847
g1707
asg104
(lp1848
g103
ag1597
asg180
(lp1849
g179
ag1417
asg238
(lp1850
g237
ag397
ag859
asg780
(lp1851
g779
ag1255
asg1492
(lp1852
g1491
ag1787
asg686
(lp1853
g685
asg744
(lp1854
g743
ag1077
ag1459
asg994
(lp1855
g993
asg1776
(lp1856
g1775
asg812
(lp1857
g811
ag1143
asg1052
(lp1858
g1051
asg948
(lp1859
g947
asg718
(lp1860
g717
ag1553
asg170
(lp1861
g169
ag1293
ag1681
asg1096
(lp1862
g1095
asg1060
(lp1863
g1059
asg1472
(lp1864
g1471
asg720
(lp1865
g719
asg1716
(lp1866
g1715
asg988
(lp1867
g987
ag1693
asg224
(lp1868
g223
ag1751
ag1785
asg580
(lp1869
g579
asg480
(lp1870
g479
ag667
ag723
ag1441
ag1729
asg414
(lp1871
g413
ag625
asg344
(lp1872
g343
ag353
ag847
ag1567
asg1116
(lp1873
g1115
asg770
(lp1874
g769
asg442
(lp1875
g441
ag1187
asg400
(lp1876
g399
ag977
asg448
(lp1877
g447
ag997
asg330
(lp1878
g329
ag1287
asg680
(lp1879
g679
ag1313
asg1668
(lp1880
g1667
asg16
(lp1881
g15
asg1190
(lp1882
g1189
ag1761
asg590
(lp1883
g589
asg1414
(lp1884
g1413
asg220
(lp1885
g219
asg1654
(lp1886
g1653
asg444
(lp1887
g443
asg1304
(lp1888
g1303
asg436
(lp1889
g435
asg298
(lp1890
g297
ag1043
asg858
(lp1891
g857
ag863
asg1166
(lp1892
g1165
asg776
(lp1893
g775
asg584
(lp1894
g583
asg526
(lp1895
g525
ag1067
ag1387
ag1591
asg1114
(lp1896
g1113
asg1380
(lp1897
g1379
asg908
(lp1898
g907
ag1393
asg1372
(lp1899
g1371
asg1202
(lp1900
g1201
asg760
(lp1901
g759
asg814
(lp1902
g813
asg390
(lp1903
g389
asg362
(lp1904
g361
ag841
asg424
(lp1905
g423
ag1607
asg188
(lp1906
g187
ag321
ag1589
asg1706
(lp1907
g1705
asg476
(lp1908
g475
ag1273
asg34
(lp1909
g33
ag53
asg1234
(lp1910
g1233
asg1126
(lp1911
g1125
asg460
(lp1912
g459
ag1489
asg256
(lp1913
g255
asg1742
(lp1914
g1741
asg42
(lp1915
g41
asg130
(lp1916
g129
asg670
(lp1917
g669
ag963
asg634
(lp1918
g633
asg152
(lp1919
g151
asg544
(lp1920
g543
asg484
(lp1921
g483
asg574
(lp1922
g573
ag1185
asg86
(lp1923
g85
ag117
ag375
asg1258
(lp1924
g1257
asg8
(lp1925
g7
ag801
ag1477
asg778
(lp1926
g777
ag887
asg1670
(lp1927
g1669
asg936
(lp1928
g935
ag1629
asg1718
(lp1929
g1717
asg728
(lp1930
g727
ag1419
asg462
(lp1931
g461
ag1583
asg1528
(lp1932
g1527
asg126
(lp1933
g125
asg566
(lp1934
g565
ag981
ag1779
asg374
(lp1935
g373
ag1363
asg70
(lp1936
g69
ag421
ag797
ag1005
ag1309
ag1311
ag1537
asg1020
(lp1937
g1019
asg618
(lp1938
g617
asg1038
(lp1939
g1037
ag1335
asg368
(lp1940
g367
ag1541
ag1697
asg1170
(lp1941
g1169
asg614
(lp1942
g613
asg880
(lp1943
g879
asg552
(lp1944
g551
ag635
ag1333
ag1439
ag1639
asg94
(lp1945
g93
ag533
ag707
ag1117
asg1456
(lp1946
g1455
asg6
(lp1947
g5
ag63
ag315
asg366
(lp1948
g365
ag1771
ag1795
asg110
(lp1949
g109
asg1348
(lp1950
g1347
asg1498
(lp1951
g1497
asg66
(lp1952
g65
asg500
(lp1953
g499
asg342
(lp1954
g341
ag943
ag1123
asg318
(lp1955
g317
ag1615
asg642
(lp1956
g641
asg570
(lp1957
g569
asg278
(lp1958
g277
ag425
asg616
(lp1959
g615
asg4
(lp1960
g3
ag831
asg1454
(lp1961
g1453
asg324
(lp1962
g323
asg1168
(lp1963
g1167
ag1621
asg206
(lp1964
g205
asg302
(lp1965
g301
ag1219
asg106
(lp1966
g105
ag465
ag611
ag1199
asg208
(lp1967
g207
ag1181
asg1050
(lp1968
g1049
ag1623
asg1070
(lp1969
g1069
ag1171
asg592
(lp1970
g591
asg410
(lp1971
g409
asg1572
(lp1972
g1571
asg520
(lp1973
g519
asg1002
(lp1974
g1001
asg494
(lp1975
g493
asg384
(lp1976
g383
ag1507
asg312
(lp1977
g311
ag1365
ag1517
ag1641
asg314
(lp1978
g313
ag1249
ag1253
asg486
(lp1979
g485
ag651
ag821
ag1161
asg1212
(lp1980
g1211
asg656
(lp1981
g655
ag1445
asg1290
(lp1982
g1289
asg56
(lp1983
g55
ag417
asg270
(lp1984
g269
asg588
(lp1985
g587
ag995
ag1239
ag1369
ag1719
ag1777
asg218
(lp1986
g217
asg210
(lp1987
g209
asg824
(lp1988
g823
ag1227
ag1485
asg1526
(lp1989
g1525
asg1276
(lp1990
g1275
asg902
(lp1991
g901
ag1157
asg186
(lp1992
g185
ag913
ag1291
asg790
(lp1993
g789
ag795
asg1152
(lp1994
g1151
ag1631
asg992
(lp1995
g991
asg358
(lp1996
g357
asg1286
(lp1997
g1285
asg1146
(lp1998
g1145
ag1305
ag1479
ag1743
asg740
(lp1999
g739
asg478
(lp2000
g477
ag1041
asg1540
(lp2001
g1539
asg1666
(lp2002
g1665
asg68
(lp2003
g67
asg734
(lp2004
g733
ag1053
ag1099
ag1159
asg24
(lp2005
g23
ag1147
asg364
(lp2006
g363
ag1683
asg32
(lp2007
g31
ag689
asg1514
(lp2008
g1513
asg1066
(lp2009
g1065
ag1107
asg504
(lp2010
g503
ag607
asg1368
(lp2011
g1367
asg482
(lp2012
g481
asg1764
(lp2013
g1763
asg1714
(lp2014
g1713
asg1022
(lp2015
g1021
asg1766
(lp2016
g1765
asg556
(lp2017
g555
ag871
ag1727
asg596
(lp2018
g595
asg874
(lp2019
g873
ag925
asg628
(lp2020
g627
asg1502
(lp2021
g1501
ag1689
asg498
(lp2022
g497
asg146
(lp2023
g145
ag1205
ag1561
asg582
(lp2024
g581
asg202
(lp2025
g201
ag291
ag511
asg632
(lp2026
g631
asg468
(lp2027
g467
ag649
ag1039
asg742
(lp2028
g741
asg1452
(lp2029
g1451
asg58
(lp2030
g57
ag331
asg350
(lp2031
g349
ag839
ag1721
asg48
(lp2032
g47
asg1704
(lp2033
g1703
asg818
(lp2034
g817
ag1279
asg18
(lp2035
g17
asg154
(lp2036
g153
ag183
asg764
(lp2037
g763
asg638
(lp2038
g637
asg1028
(lp2039
g1027
asg10
(lp2040
g9
ag333
ag463
ag531
ag883
ag1345
asg692
(lp2041
g691
ag941
ag1737
asg168
(lp2042
g167
ag1753
asg896
(lp2043
g895
asg156
(lp2044
g155
ag415
ag897
asg854
(lp2045
g853
asg688
(lp2046
g687
asg640
(lp2047
g639
asg160
(lp2048
g159
ag203
ag1071
asg122
(lp2049
g121
ag271
asg196
(lp2050
g195
asg440
(lp2051
g439
ag915
asg1282
(lp2052
g1281
asg128
(lp2053
g127
ag233
ag251
ag961
ag1029
ag1197
ag1723
asg356
(lp2054
g355
ag557
ag927
ag1079
ag1081
ag1341
ag1573
ag1781
asg844
(lp2055
g843
asg684
(lp2056
g683
asg938
(lp2057
g937
asg52
(lp2058
g51
asg604
(lp2059
g603
ag661
asg44
(lp2060
g43
ag893
ag945
ag989
asg1092
(lp2061
g1091
asg830
(lp2062
g829
asg852
(lp2063
g851
asg1180
(lp2064
g1179
ag1267
ag1739
asg952
(lp2065
g951
ag1381
ag1391
asg38
(lp2066
g37
ag1385
asg950
(lp2067
g949
ag1155
ag1325
asg1576
(lp2068
g1575
ag1769
asg620
(lp2069
g619
ag833
asg260
(lp2070
g259
ag681
ag1677
asg838
(lp2071
g837
asg1226
(lp2072
g1225
asg1672
(lp2073
g1671
asg794
(lp2074
g793
asg338
(lp2075
g337
ag1609
asg92
(lp2076
g91
ag391
ag909
asg772
(lp2077
g771
ag1213
asg1586
(lp2078
g1585
asg144
(lp2079
g143
ag279
asg518
(lp2080
g517
ag973
asg1320
(lp2081
g1319
asg644
(lp2082
g643
ag1701
asg182
(lp2083
g181
asg1000
(lp2084
g999
asg828
(lp2085
g827
asg1266
(lp2086
g1265
asg1238
(lp2087
g1237
asg388
(lp2088
g387
ag1083
asg1332
(lp2089
g1331
asg954
(lp2090
g953
asg62
(lp2091
g61
ag969
ag1075
ag1097
ag1221
ag1283
asg1088
(lp2092
g1087
asg1106
(lp2093
g1105
asg1604
(lp2094
g1603
ag1759
asg956
(lp2095
g955
asg394
(lp2096
g393
ag703
ag807
ag865
asg1058
(lp2097
g1057
asg132
(lp2098
g131
ag1581
asg976
(lp2099
g975
ag1493
ag1661
asg454
(lp2100
g453
asg1544
(lp2101
g1543
asg1406
(lp2102
g1405
asg1278
(lp2103
g1277
ag1647
asg1578
(lp2104
g1577
asg102
(lp2105
g101
ag605
asg1688
(lp2106
g1687
asg1396
(lp2107
g1395
asg1482
(lp2108
g1481
asg1390
(lp2109
g1389
ag1529
asg80
(lp2110
g79
ag123
ag335
ag347
ag371
ag457
ag469
ag599
ag749
ag805
ag835
asg472
(lp2111
g471
asg1626
(lp2112
g1625
asg630
(lp2113
g629
asg1484
(lp2114
g1483
asg538
(lp2115
g537
asg530
(lp2116
g529
asg194
(lp2117
g193
ag787
ag1109
asg310
(lp2118
g309
ag549
ag1235
ag1651
asg882
(lp2119
g881
asg1462
(lp2120
g1461
asg1402
(lp2121
g1401
asg1448
(lp2122
g1447
ag1649
asg1094
(lp2123
g1093
ag1433
ag1725
ag1749
asg226
(lp2124
g225
ag1593
asg594
(lp2125
g593
asg1712
(lp2126
g1711
asg1296
(lp2127
g1295
ag1619
asg886
(lp2128
g885
ag1409
asg1328
(lp2129
g1327
asg1644
(lp2130
g1643
asg1360
(lp2131
g1359
asg850
(lp2132
g849
asg246
(lp2133
g245
ag1177
asg236
(lp2134
g235
asg378
(lp2135
g377
asg1660
(lp2136
g1659
asg1552
(lp2137
g1551
asg672
(lp2138
g671
asg264
(lp2139
g263
asg810
(lp2140
g809
asg216
(lp2141
g215
ag521
ag1301
ag1695
asg1154
(lp2142
g1153
asg1516
(lp2143
g1515
asg598
(lp2144
g597
ag1383
ag1457
asg676
(lp2145
g675
ag1007
asg1010
(lp2146
g1009
ag1745
asg548
(lp2147
g547
ag1655
asg986
(lp2148
g985
ag1487
asg282
(lp2149
g281
asg920
(lp2150
g919
asg754
(lp2151
g753
ag1085
ag1259
ag1499
ag1611
ag1747
asg610
(lp2152
g609
ag1755
asg28
(lp2153
g27
ag923
ag1579
asg1122
(lp2154
g1121
asg984
(lp2155
g983
asg1496
(lp2156
g1495
asg1062
(lp2157
g1061
asg958
(lp2158
g957
asg1164
(lp2159
g1163
asg1036
(lp2160
g1035
asg36
(lp2161
g35
asg1112
(lp2162
g1111
asg82
(lp2163
g81
ag487
ag725
asg74
(lp2164
g73
asg164
(lp2165
g163
asg870
(lp2166
g869
asg1470
(lp2167
g1469
asg294
(lp2168
g293
ag737
ag1511
asg602
(lp2169
g601
ag663
ag713
ag1323
asg406
(lp2170
g405
asg1132
(lp2171
g1131
asg890
(lp2172
g889
asg868
(lp2173
g867
asg120
(lp2174
g119
ag449
asg262
(lp2175
g261
asg1300
(lp2176
g1299
ag1435
asg172
(lp2177
g171
ag1559
asg528
(lp2178
g527
ag1089
asg496
(lp2179
g495
asg1024
(lp2180
g1023
ag1307
asg1564
(lp2181
g1563
asg72
(lp2182
g71
asg1340
(lp2183
g1339
asg560
(lp2184
g559
ag1351
ag1595
asg1032
(lp2185
g1031
ag1465
asg1034
(lp2186
g1033
asg174
(lp2187
g173
ag1675
asg1536
(lp2188
g1535
ag1791
asg1404
(lp2189
g1403
asg176
(lp2190
g175
asg912
(lp2191
g911
asg918
(lp2192
g917
asg1298
(lp2193
g1297
asg694
(lp2194
g693
ag701
ag921
ag1149
asg554
(lp2195
g553
ag697
ag1133
asg1318
(lp2196
g1317
asg1734
(lp2197
g1733
asg932
(lp2198
g931
ag1355
ag1509
ag1645
ag1783
asg84
(lp2199
g83
ag1013
ag1209
ag1415
asg228
(lp2200
g227
ag265
ag659
ag1063
ag1547
asg524
(lp2201
g523
ag563
ag1047
ag1215
asg792
(lp2202
g791
ag1463
asg14
(lp2203
g13
ag1605
asg1674
(lp2204
g1673
asg1700
(lp2205
g1699
asg2
(lp2206
g1
ag305
ag379
ag1357
ag1691
asg290
(lp2207
g289
ag1337
asg980
(lp2208
g979
asg906
(lp2209
g905
asg1680
(lp2210
g1679
asg1658
(lp2211
g1657
asg286
(lp2212
g285
asg242
(lp2213
g241
ag1505
asg1252
(lp2214
g1251
asg846
(lp2215
g845
asg166
(lp2216
g165
asg30
(lp2217
g29
ag49
ag1127
asg804
(lp2218
g803
asg178
(lp2219
g177
asg412
(lp2220
g411
asg1602
(lp2221
g1601
asg562
(lp2222
g561
asg1004
(lp2223
g1003
asg624
(lp2224
g623
asg654
(lp2225
g653
asg1476
(lp2226
g1475
asg1196
(lp2227
g1195
asg1272
(lp2228
g1271
asg198
(lp2229
g197
ag295
asg190
(lp2230
g189
ag1343
asg542
(lp2231
g541
ag1361
asg536
(lp2232
g535
ag567
asg192
(lp2233
g191
asg112
(lp2234
g111
ag199
ag243
ag1549
ag1613
asg140
(lp2235
g139
asg404
(lp2236
g403
asg972
(lp2237
g971
asg1246
(lp2238
g1245
asg142
(lp2239
g141
ag1203
asg308
(lp2240
g307
asg758
(lp2241
g757
ag825
asg706
(lp2242
g705
ag729
ag1685
asg240
(lp2243
g239
ag891
asg326
(lp2244
g325
ag903
ag939
asg856
(lp2245
g855
asg474
(lp2246
g473
asg300
(lp2247
g299
ag815
asg1570
(lp2248
g1569
asg136
(lp2249
g135
asg78
(lp2250
g77
ag929
asg934
(lp2251
g933
asg820
(lp2252
g819
asg1120
(lp2253
g1119
ag1449
asg666
(lp2254
g665
ag1025
asg1412
(lp2255
g1411
asg304
(lp2256
g303
ag1247
asg1376
(lp2257
g1375
asg748
(lp2258
g747
asg658
(lp2259
g657
asg1074
(lp2260
g1073
ag1229
asg586
(lp2261
g585
asg320
(lp2262
g319
asg22
(lp2263
g21
ag1565
asg1184
(lp2264
g1183
asg452
(lp2265
g451
asg158
(lp2266
g157
ag381
asg274
(lp2267
g273
ag1521
asg1208
(lp2268
g1207
ag1637
asg1378
(lp2269
g1377
asg116
(lp2270
g115
asg540
(lp2271
g539
ag1427
asg276
(lp2272
g275
asg968
(lp2273
g967
asg254
(lp2274
g253
ag1263
asg784
(lp2275
g783
asg212
(lp2276
g211
asg248
(lp2277
g247
ag509
ag1587
asg1634
(lp2278
g1633
asg1130
(lp2279
g1129
asg1474
(lp2280
g1473
asg1056
(lp2281
g1055
ag1789
asg678
(lp2282
g677
ag877
ag1557
asg1408
(lp2283
g1407
asg134
(lp2284
g133
ag369
ag1139
ag1373
ag1757
asg12
(lp2285
g11
asg1534
(lp2286
g1533
asg1138
(lp2287
g1137
asg546
(lp2288
g545
asg752
(lp2289
g751
asg710
(lp2290
g709
ag1767
asg774
(lp2291
g773
ag1011
asg428
(lp2292
g427
ag433
ag715
ag1431
asg100
(lp2293
g99
ag445
asg138
(lp2294
g137
asg1426
(lp2295
g1425
asg732
(lp2296
g731
ag1731
asg150
(lp2297
g149
asg1438
(lp2298
g1437
ag1635
asg1600
(lp2299
g1599
asg622
(lp2300
g621
asg26
(lp2301
g25
ag107
ag257
ag339
ag861
ag1193
ag1261
ag1617
asg736
(lp2302
g735
ag1399
asg268
(lp2303
g267
ag1429
ag1519
asg148
(lp2304
g147
ag287
ag395
ag1103
asg800
(lp2305
g799
asg46
(lp2306
g45
ag437
asg508
(lp2307
g507
asg214
(lp2308
g213
ag229
ag401
ag875
asg514
(lp2309
g513
asg456
(lp2310
g455
ag1663
astp2311
.